; ModuleID = 'vector_math.ll'

declare float @_Z4acosf(float %p0) nounwind
define <2 x float> @_Z4acosu2v2f(<2 x float> %p0) nounwind {
	%s1_0 = extractelement <2 x float> %p0, i32 0
	%v1 = call float @_Z4acosf(float %s1_0)
	%r1 = insertelement <2 x float> undef, float %v1, i32 0
	%s2_0 = extractelement <2 x float> %p0, i32 1
	%v2 = call float @_Z4acosf(float %s2_0)
	%r2 = insertelement <2 x float> %r1, float %v2, i32 1
	ret <2 x float> %r2
}
declare float @_Z5acoshf(float %p0) nounwind
define <2 x float> @_Z5acoshu2v2f(<2 x float> %p0) nounwind {
	%s1_0 = extractelement <2 x float> %p0, i32 0
	%v1 = call float @_Z5acoshf(float %s1_0)
	%r1 = insertelement <2 x float> undef, float %v1, i32 0
	%s2_0 = extractelement <2 x float> %p0, i32 1
	%v2 = call float @_Z5acoshf(float %s2_0)
	%r2 = insertelement <2 x float> %r1, float %v2, i32 1
	ret <2 x float> %r2
}
declare float @_Z6acospif(float %p0) nounwind
define <2 x float> @_Z6acospiu2v2f(<2 x float> %p0) nounwind {
	%s1_0 = extractelement <2 x float> %p0, i32 0
	%v1 = call float @_Z6acospif(float %s1_0)
	%r1 = insertelement <2 x float> undef, float %v1, i32 0
	%s2_0 = extractelement <2 x float> %p0, i32 1
	%v2 = call float @_Z6acospif(float %s2_0)
	%r2 = insertelement <2 x float> %r1, float %v2, i32 1
	ret <2 x float> %r2
}
declare float @_Z4asinf(float %p0) nounwind
define <2 x float> @_Z4asinu2v2f(<2 x float> %p0) nounwind {
	%s1_0 = extractelement <2 x float> %p0, i32 0
	%v1 = call float @_Z4asinf(float %s1_0)
	%r1 = insertelement <2 x float> undef, float %v1, i32 0
	%s2_0 = extractelement <2 x float> %p0, i32 1
	%v2 = call float @_Z4asinf(float %s2_0)
	%r2 = insertelement <2 x float> %r1, float %v2, i32 1
	ret <2 x float> %r2
}
declare float @_Z5asinhf(float %p0) nounwind
define <2 x float> @_Z5asinhu2v2f(<2 x float> %p0) nounwind {
	%s1_0 = extractelement <2 x float> %p0, i32 0
	%v1 = call float @_Z5asinhf(float %s1_0)
	%r1 = insertelement <2 x float> undef, float %v1, i32 0
	%s2_0 = extractelement <2 x float> %p0, i32 1
	%v2 = call float @_Z5asinhf(float %s2_0)
	%r2 = insertelement <2 x float> %r1, float %v2, i32 1
	ret <2 x float> %r2
}
declare float @_Z6asinpif(float %p0) nounwind
define <2 x float> @_Z6asinpiu2v2f(<2 x float> %p0) nounwind {
	%s1_0 = extractelement <2 x float> %p0, i32 0
	%v1 = call float @_Z6asinpif(float %s1_0)
	%r1 = insertelement <2 x float> undef, float %v1, i32 0
	%s2_0 = extractelement <2 x float> %p0, i32 1
	%v2 = call float @_Z6asinpif(float %s2_0)
	%r2 = insertelement <2 x float> %r1, float %v2, i32 1
	ret <2 x float> %r2
}
declare float @_Z4atanf(float %p0) nounwind
define <2 x float> @_Z4atanu2v2f(<2 x float> %p0) nounwind {
	%s1_0 = extractelement <2 x float> %p0, i32 0
	%v1 = call float @_Z4atanf(float %s1_0)
	%r1 = insertelement <2 x float> undef, float %v1, i32 0
	%s2_0 = extractelement <2 x float> %p0, i32 1
	%v2 = call float @_Z4atanf(float %s2_0)
	%r2 = insertelement <2 x float> %r1, float %v2, i32 1
	ret <2 x float> %r2
}
declare float @_Z5atan2ff(float %p0, float %p1) nounwind
define <2 x float> @_Z5atan2u2v2fu2v2f(<2 x float> %p0, <2 x float> %p1) nounwind {
	%s1_0 = extractelement <2 x float> %p0, i32 0
	%s1_1 = extractelement <2 x float> %p1, i32 0
	%v1 = call float @_Z5atan2ff(float %s1_0, float %s1_1)
	%r1 = insertelement <2 x float> undef, float %v1, i32 0
	%s2_0 = extractelement <2 x float> %p0, i32 1
	%s2_1 = extractelement <2 x float> %p1, i32 1
	%v2 = call float @_Z5atan2ff(float %s2_0, float %s2_1)
	%r2 = insertelement <2 x float> %r1, float %v2, i32 1
	ret <2 x float> %r2
}
declare float @_Z5atanhf(float %p0) nounwind
define <2 x float> @_Z5atanhu2v2f(<2 x float> %p0) nounwind {
	%s1_0 = extractelement <2 x float> %p0, i32 0
	%v1 = call float @_Z5atanhf(float %s1_0)
	%r1 = insertelement <2 x float> undef, float %v1, i32 0
	%s2_0 = extractelement <2 x float> %p0, i32 1
	%v2 = call float @_Z5atanhf(float %s2_0)
	%r2 = insertelement <2 x float> %r1, float %v2, i32 1
	ret <2 x float> %r2
}
declare float @_Z6atanpif(float %p0) nounwind
define <2 x float> @_Z6atanpiu2v2f(<2 x float> %p0) nounwind {
	%s1_0 = extractelement <2 x float> %p0, i32 0
	%v1 = call float @_Z6atanpif(float %s1_0)
	%r1 = insertelement <2 x float> undef, float %v1, i32 0
	%s2_0 = extractelement <2 x float> %p0, i32 1
	%v2 = call float @_Z6atanpif(float %s2_0)
	%r2 = insertelement <2 x float> %r1, float %v2, i32 1
	ret <2 x float> %r2
}
declare float @_Z7atan2piff(float %p0, float %p1) nounwind
define <2 x float> @_Z7atan2piu2v2fu2v2f(<2 x float> %p0, <2 x float> %p1) nounwind {
	%s1_0 = extractelement <2 x float> %p0, i32 0
	%s1_1 = extractelement <2 x float> %p1, i32 0
	%v1 = call float @_Z7atan2piff(float %s1_0, float %s1_1)
	%r1 = insertelement <2 x float> undef, float %v1, i32 0
	%s2_0 = extractelement <2 x float> %p0, i32 1
	%s2_1 = extractelement <2 x float> %p1, i32 1
	%v2 = call float @_Z7atan2piff(float %s2_0, float %s2_1)
	%r2 = insertelement <2 x float> %r1, float %v2, i32 1
	ret <2 x float> %r2
}
declare float @_Z4cbrtf(float %p0) nounwind
define <2 x float> @_Z4cbrtu2v2f(<2 x float> %p0) nounwind {
	%s1_0 = extractelement <2 x float> %p0, i32 0
	%v1 = call float @_Z4cbrtf(float %s1_0)
	%r1 = insertelement <2 x float> undef, float %v1, i32 0
	%s2_0 = extractelement <2 x float> %p0, i32 1
	%v2 = call float @_Z4cbrtf(float %s2_0)
	%r2 = insertelement <2 x float> %r1, float %v2, i32 1
	ret <2 x float> %r2
}
declare float @_Z4ceilf(float %p0) nounwind
define <2 x float> @_Z4ceilu2v2f(<2 x float> %p0) nounwind {
	%s1_0 = extractelement <2 x float> %p0, i32 0
	%v1 = call float @_Z4ceilf(float %s1_0)
	%r1 = insertelement <2 x float> undef, float %v1, i32 0
	%s2_0 = extractelement <2 x float> %p0, i32 1
	%v2 = call float @_Z4ceilf(float %s2_0)
	%r2 = insertelement <2 x float> %r1, float %v2, i32 1
	ret <2 x float> %r2
}
declare float @_Z8copysignff(float %p0, float %p1) nounwind
define <2 x float> @_Z8copysignu2v2fu2v2f(<2 x float> %p0, <2 x float> %p1) nounwind {
	%s1_0 = extractelement <2 x float> %p0, i32 0
	%s1_1 = extractelement <2 x float> %p1, i32 0
	%v1 = call float @_Z8copysignff(float %s1_0, float %s1_1)
	%r1 = insertelement <2 x float> undef, float %v1, i32 0
	%s2_0 = extractelement <2 x float> %p0, i32 1
	%s2_1 = extractelement <2 x float> %p1, i32 1
	%v2 = call float @_Z8copysignff(float %s2_0, float %s2_1)
	%r2 = insertelement <2 x float> %r1, float %v2, i32 1
	ret <2 x float> %r2
}
declare float @_Z4coshf(float %p0) nounwind
define <2 x float> @_Z4coshu2v2f(<2 x float> %p0) nounwind {
	%s1_0 = extractelement <2 x float> %p0, i32 0
	%v1 = call float @_Z4coshf(float %s1_0)
	%r1 = insertelement <2 x float> undef, float %v1, i32 0
	%s2_0 = extractelement <2 x float> %p0, i32 1
	%v2 = call float @_Z4coshf(float %s2_0)
	%r2 = insertelement <2 x float> %r1, float %v2, i32 1
	ret <2 x float> %r2
}
declare float @_Z5cospif(float %p0) nounwind
define <2 x float> @_Z5cospiu2v2f(<2 x float> %p0) nounwind {
	%s1_0 = extractelement <2 x float> %p0, i32 0
	%v1 = call float @_Z5cospif(float %s1_0)
	%r1 = insertelement <2 x float> undef, float %v1, i32 0
	%s2_0 = extractelement <2 x float> %p0, i32 1
	%v2 = call float @_Z5cospif(float %s2_0)
	%r2 = insertelement <2 x float> %r1, float %v2, i32 1
	ret <2 x float> %r2
}
declare float @_Z4erfcf(float %p0) nounwind
define <2 x float> @_Z4erfcu2v2f(<2 x float> %p0) nounwind {
	%s1_0 = extractelement <2 x float> %p0, i32 0
	%v1 = call float @_Z4erfcf(float %s1_0)
	%r1 = insertelement <2 x float> undef, float %v1, i32 0
	%s2_0 = extractelement <2 x float> %p0, i32 1
	%v2 = call float @_Z4erfcf(float %s2_0)
	%r2 = insertelement <2 x float> %r1, float %v2, i32 1
	ret <2 x float> %r2
}
declare float @_Z3erff(float %p0) nounwind
define <2 x float> @_Z3erfu2v2f(<2 x float> %p0) nounwind {
	%s1_0 = extractelement <2 x float> %p0, i32 0
	%v1 = call float @_Z3erff(float %s1_0)
	%r1 = insertelement <2 x float> undef, float %v1, i32 0
	%s2_0 = extractelement <2 x float> %p0, i32 1
	%v2 = call float @_Z3erff(float %s2_0)
	%r2 = insertelement <2 x float> %r1, float %v2, i32 1
	ret <2 x float> %r2
}
declare float @_Z4exp2f(float %p0) nounwind
define <2 x float> @_Z4exp2u2v2f(<2 x float> %p0) nounwind {
	%s1_0 = extractelement <2 x float> %p0, i32 0
	%v1 = call float @_Z4exp2f(float %s1_0)
	%r1 = insertelement <2 x float> undef, float %v1, i32 0
	%s2_0 = extractelement <2 x float> %p0, i32 1
	%v2 = call float @_Z4exp2f(float %s2_0)
	%r2 = insertelement <2 x float> %r1, float %v2, i32 1
	ret <2 x float> %r2
}
declare float @_Z5exp10f(float %p0) nounwind
define <2 x float> @_Z5exp10u2v2f(<2 x float> %p0) nounwind {
	%s1_0 = extractelement <2 x float> %p0, i32 0
	%v1 = call float @_Z5exp10f(float %s1_0)
	%r1 = insertelement <2 x float> undef, float %v1, i32 0
	%s2_0 = extractelement <2 x float> %p0, i32 1
	%v2 = call float @_Z5exp10f(float %s2_0)
	%r2 = insertelement <2 x float> %r1, float %v2, i32 1
	ret <2 x float> %r2
}
declare float @_Z5expm1f(float %p0) nounwind
define <2 x float> @_Z5expm1u2v2f(<2 x float> %p0) nounwind {
	%s1_0 = extractelement <2 x float> %p0, i32 0
	%v1 = call float @_Z5expm1f(float %s1_0)
	%r1 = insertelement <2 x float> undef, float %v1, i32 0
	%s2_0 = extractelement <2 x float> %p0, i32 1
	%v2 = call float @_Z5expm1f(float %s2_0)
	%r2 = insertelement <2 x float> %r1, float %v2, i32 1
	ret <2 x float> %r2
}
declare float @_Z4fdimff(float %p0, float %p1) nounwind
define <2 x float> @_Z4fdimu2v2fu2v2f(<2 x float> %p0, <2 x float> %p1) nounwind {
	%s1_0 = extractelement <2 x float> %p0, i32 0
	%s1_1 = extractelement <2 x float> %p1, i32 0
	%v1 = call float @_Z4fdimff(float %s1_0, float %s1_1)
	%r1 = insertelement <2 x float> undef, float %v1, i32 0
	%s2_0 = extractelement <2 x float> %p0, i32 1
	%s2_1 = extractelement <2 x float> %p1, i32 1
	%v2 = call float @_Z4fdimff(float %s2_0, float %s2_1)
	%r2 = insertelement <2 x float> %r1, float %v2, i32 1
	ret <2 x float> %r2
}
declare float @_Z4fmaxff(float %p0, float %p1) nounwind
define <2 x float> @_Z4fmaxu2v2fu2v2f(<2 x float> %p0, <2 x float> %p1) nounwind {
	%s1_0 = extractelement <2 x float> %p0, i32 0
	%s1_1 = extractelement <2 x float> %p1, i32 0
	%v1 = call float @_Z4fmaxff(float %s1_0, float %s1_1)
	%r1 = insertelement <2 x float> undef, float %v1, i32 0
	%s2_0 = extractelement <2 x float> %p0, i32 1
	%s2_1 = extractelement <2 x float> %p1, i32 1
	%v2 = call float @_Z4fmaxff(float %s2_0, float %s2_1)
	%r2 = insertelement <2 x float> %r1, float %v2, i32 1
	ret <2 x float> %r2
}
declare float @_Z4fminff(float %p0, float %p1) nounwind
define <2 x float> @_Z4fminu2v2fu2v2f(<2 x float> %p0, <2 x float> %p1) nounwind {
	%s1_0 = extractelement <2 x float> %p0, i32 0
	%s1_1 = extractelement <2 x float> %p1, i32 0
	%v1 = call float @_Z4fminff(float %s1_0, float %s1_1)
	%r1 = insertelement <2 x float> undef, float %v1, i32 0
	%s2_0 = extractelement <2 x float> %p0, i32 1
	%s2_1 = extractelement <2 x float> %p1, i32 1
	%v2 = call float @_Z4fminff(float %s2_0, float %s2_1)
	%r2 = insertelement <2 x float> %r1, float %v2, i32 1
	ret <2 x float> %r2
}
declare float @_Z4fmodff(float %p0, float %p1) nounwind
define <2 x float> @_Z4fmodu2v2fu2v2f(<2 x float> %p0, <2 x float> %p1) nounwind {
	%s1_0 = extractelement <2 x float> %p0, i32 0
	%s1_1 = extractelement <2 x float> %p1, i32 0
	%v1 = call float @_Z4fmodff(float %s1_0, float %s1_1)
	%r1 = insertelement <2 x float> undef, float %v1, i32 0
	%s2_0 = extractelement <2 x float> %p0, i32 1
	%s2_1 = extractelement <2 x float> %p1, i32 1
	%v2 = call float @_Z4fmodff(float %s2_0, float %s2_1)
	%r2 = insertelement <2 x float> %r1, float %v2, i32 1
	ret <2 x float> %r2
}
declare float @_Z5fractfPf(float %p0, float* %p1) nounwind
define <2 x float> @_Z5fractu2v2fPu2v2f(<2 x float> %p0, <2 x float>* %p1) nounwind {
	%s1_0 = extractelement <2 x float> %p0, i32 0
	%s1_1 = getelementptr <2 x float>* %p1, i32 0, i32 0
	%v1 = call float @_Z5fractfPf(float %s1_0, float* %s1_1)
	%r1 = insertelement <2 x float> undef, float %v1, i32 0
	%s2_0 = extractelement <2 x float> %p0, i32 1
	%s2_1 = getelementptr <2 x float>* %p1, i32 0, i32 1
	%v2 = call float @_Z5fractfPf(float %s2_0, float* %s2_1)
	%r2 = insertelement <2 x float> %r1, float %v2, i32 1
	ret <2 x float> %r2
}
declare float @_Z5frexpfPi(float %p0, i32* %p1) nounwind
define <2 x float> @_Z5frexpu2v2fPu2v2i(<2 x float> %p0, <2 x i32>* %p1) nounwind {
	%s1_0 = extractelement <2 x float> %p0, i32 0
	%s1_1 = getelementptr <2 x i32>* %p1, i32 0, i32 0
	%v1 = call float @_Z5frexpfPi(float %s1_0, i32* %s1_1)
	%r1 = insertelement <2 x float> undef, float %v1, i32 0
	%s2_0 = extractelement <2 x float> %p0, i32 1
	%s2_1 = getelementptr <2 x i32>* %p1, i32 0, i32 1
	%v2 = call float @_Z5frexpfPi(float %s2_0, i32* %s2_1)
	%r2 = insertelement <2 x float> %r1, float %v2, i32 1
	ret <2 x float> %r2
}
declare float @_Z5hypotff(float %p0, float %p1) nounwind
define <2 x float> @_Z5hypotu2v2fu2v2f(<2 x float> %p0, <2 x float> %p1) nounwind {
	%s1_0 = extractelement <2 x float> %p0, i32 0
	%s1_1 = extractelement <2 x float> %p1, i32 0
	%v1 = call float @_Z5hypotff(float %s1_0, float %s1_1)
	%r1 = insertelement <2 x float> undef, float %v1, i32 0
	%s2_0 = extractelement <2 x float> %p0, i32 1
	%s2_1 = extractelement <2 x float> %p1, i32 1
	%v2 = call float @_Z5hypotff(float %s2_0, float %s2_1)
	%r2 = insertelement <2 x float> %r1, float %v2, i32 1
	ret <2 x float> %r2
}
declare float @_Z5ldexpfi(float %p0, i32 %p1) nounwind
define <2 x float> @_Z5ldexpu2v2fu2v2i(<2 x float> %p0, <2 x i32> %p1) nounwind {
	%s1_0 = extractelement <2 x float> %p0, i32 0
	%s1_1 = extractelement <2 x i32> %p1, i32 0
	%v1 = call float @_Z5ldexpfi(float %s1_0, i32 %s1_1)
	%r1 = insertelement <2 x float> undef, float %v1, i32 0
	%s2_0 = extractelement <2 x float> %p0, i32 1
	%s2_1 = extractelement <2 x i32> %p1, i32 1
	%v2 = call float @_Z5ldexpfi(float %s2_0, i32 %s2_1)
	%r2 = insertelement <2 x float> %r1, float %v2, i32 1
	ret <2 x float> %r2
}
declare float @_Z6lgammaf(float %p0) nounwind
define <2 x float> @_Z6lgammau2v2f(<2 x float> %p0) nounwind {
	%s1_0 = extractelement <2 x float> %p0, i32 0
	%v1 = call float @_Z6lgammaf(float %s1_0)
	%r1 = insertelement <2 x float> undef, float %v1, i32 0
	%s2_0 = extractelement <2 x float> %p0, i32 1
	%v2 = call float @_Z6lgammaf(float %s2_0)
	%r2 = insertelement <2 x float> %r1, float %v2, i32 1
	ret <2 x float> %r2
}
declare float @_Z8lgamma_rfPi(float %p0, i32* %p1) nounwind
define <2 x float> @_Z8lgamma_ru2v2fPu2v2i(<2 x float> %p0, <2 x i32>* %p1) nounwind {
	%s1_0 = extractelement <2 x float> %p0, i32 0
	%s1_1 = getelementptr <2 x i32>* %p1, i32 0, i32 0
	%v1 = call float @_Z8lgamma_rfPi(float %s1_0, i32* %s1_1)
	%r1 = insertelement <2 x float> undef, float %v1, i32 0
	%s2_0 = extractelement <2 x float> %p0, i32 1
	%s2_1 = getelementptr <2 x i32>* %p1, i32 0, i32 1
	%v2 = call float @_Z8lgamma_rfPi(float %s2_0, i32* %s2_1)
	%r2 = insertelement <2 x float> %r1, float %v2, i32 1
	ret <2 x float> %r2
}
declare float @_Z4log2f(float %p0) nounwind
define <2 x float> @_Z4log2u2v2f(<2 x float> %p0) nounwind {
	%s1_0 = extractelement <2 x float> %p0, i32 0
	%v1 = call float @_Z4log2f(float %s1_0)
	%r1 = insertelement <2 x float> undef, float %v1, i32 0
	%s2_0 = extractelement <2 x float> %p0, i32 1
	%v2 = call float @_Z4log2f(float %s2_0)
	%r2 = insertelement <2 x float> %r1, float %v2, i32 1
	ret <2 x float> %r2
}
declare float @_Z5log10f(float %p0) nounwind
define <2 x float> @_Z5log10u2v2f(<2 x float> %p0) nounwind {
	%s1_0 = extractelement <2 x float> %p0, i32 0
	%v1 = call float @_Z5log10f(float %s1_0)
	%r1 = insertelement <2 x float> undef, float %v1, i32 0
	%s2_0 = extractelement <2 x float> %p0, i32 1
	%v2 = call float @_Z5log10f(float %s2_0)
	%r2 = insertelement <2 x float> %r1, float %v2, i32 1
	ret <2 x float> %r2
}
declare float @_Z5log1pf(float %p0) nounwind
define <2 x float> @_Z5log1pu2v2f(<2 x float> %p0) nounwind {
	%s1_0 = extractelement <2 x float> %p0, i32 0
	%v1 = call float @_Z5log1pf(float %s1_0)
	%r1 = insertelement <2 x float> undef, float %v1, i32 0
	%s2_0 = extractelement <2 x float> %p0, i32 1
	%v2 = call float @_Z5log1pf(float %s2_0)
	%r2 = insertelement <2 x float> %r1, float %v2, i32 1
	ret <2 x float> %r2
}
declare float @_Z4logbf(float %p0) nounwind
define <2 x float> @_Z4logbu2v2f(<2 x float> %p0) nounwind {
	%s1_0 = extractelement <2 x float> %p0, i32 0
	%v1 = call float @_Z4logbf(float %s1_0)
	%r1 = insertelement <2 x float> undef, float %v1, i32 0
	%s2_0 = extractelement <2 x float> %p0, i32 1
	%v2 = call float @_Z4logbf(float %s2_0)
	%r2 = insertelement <2 x float> %r1, float %v2, i32 1
	ret <2 x float> %r2
}
declare float @_Z3madfff(float %p0, float %p1, float %p2) nounwind
define <2 x float> @_Z3madu2v2fu2v2fu2v2f(<2 x float> %p0, <2 x float> %p1, <2 x float> %p2) nounwind {
	%s1_0 = extractelement <2 x float> %p0, i32 0
	%s1_1 = extractelement <2 x float> %p1, i32 0
	%s1_2 = extractelement <2 x float> %p2, i32 0
	%v1 = call float @_Z3madfff(float %s1_0, float %s1_1, float %s1_2)
	%r1 = insertelement <2 x float> undef, float %v1, i32 0
	%s2_0 = extractelement <2 x float> %p0, i32 1
	%s2_1 = extractelement <2 x float> %p1, i32 1
	%s2_2 = extractelement <2 x float> %p2, i32 1
	%v2 = call float @_Z3madfff(float %s2_0, float %s2_1, float %s2_2)
	%r2 = insertelement <2 x float> %r1, float %v2, i32 1
	ret <2 x float> %r2
}
declare float @_Z6maxmagff(float %p0, float %p1) nounwind
define <2 x float> @_Z6maxmagu2v2fu2v2f(<2 x float> %p0, <2 x float> %p1) nounwind {
	%s1_0 = extractelement <2 x float> %p0, i32 0
	%s1_1 = extractelement <2 x float> %p1, i32 0
	%v1 = call float @_Z6maxmagff(float %s1_0, float %s1_1)
	%r1 = insertelement <2 x float> undef, float %v1, i32 0
	%s2_0 = extractelement <2 x float> %p0, i32 1
	%s2_1 = extractelement <2 x float> %p1, i32 1
	%v2 = call float @_Z6maxmagff(float %s2_0, float %s2_1)
	%r2 = insertelement <2 x float> %r1, float %v2, i32 1
	ret <2 x float> %r2
}
declare float @_Z6minmagff(float %p0, float %p1) nounwind
define <2 x float> @_Z6minmagu2v2fu2v2f(<2 x float> %p0, <2 x float> %p1) nounwind {
	%s1_0 = extractelement <2 x float> %p0, i32 0
	%s1_1 = extractelement <2 x float> %p1, i32 0
	%v1 = call float @_Z6minmagff(float %s1_0, float %s1_1)
	%r1 = insertelement <2 x float> undef, float %v1, i32 0
	%s2_0 = extractelement <2 x float> %p0, i32 1
	%s2_1 = extractelement <2 x float> %p1, i32 1
	%v2 = call float @_Z6minmagff(float %s2_0, float %s2_1)
	%r2 = insertelement <2 x float> %r1, float %v2, i32 1
	ret <2 x float> %r2
}
declare float @_Z4modffPf(float %p0, float* %p1) nounwind
define <2 x float> @_Z4modfu2v2fPu2v2f(<2 x float> %p0, <2 x float>* %p1) nounwind {
	%s1_0 = extractelement <2 x float> %p0, i32 0
	%s1_1 = getelementptr <2 x float>* %p1, i32 0, i32 0
	%v1 = call float @_Z4modffPf(float %s1_0, float* %s1_1)
	%r1 = insertelement <2 x float> undef, float %v1, i32 0
	%s2_0 = extractelement <2 x float> %p0, i32 1
	%s2_1 = getelementptr <2 x float>* %p1, i32 0, i32 1
	%v2 = call float @_Z4modffPf(float %s2_0, float* %s2_1)
	%r2 = insertelement <2 x float> %r1, float %v2, i32 1
	ret <2 x float> %r2
}
declare float @_Z9nextafterff(float %p0, float %p1) nounwind
define <2 x float> @_Z9nextafteru2v2fu2v2f(<2 x float> %p0, <2 x float> %p1) nounwind {
	%s1_0 = extractelement <2 x float> %p0, i32 0
	%s1_1 = extractelement <2 x float> %p1, i32 0
	%v1 = call float @_Z9nextafterff(float %s1_0, float %s1_1)
	%r1 = insertelement <2 x float> undef, float %v1, i32 0
	%s2_0 = extractelement <2 x float> %p0, i32 1
	%s2_1 = extractelement <2 x float> %p1, i32 1
	%v2 = call float @_Z9nextafterff(float %s2_0, float %s2_1)
	%r2 = insertelement <2 x float> %r1, float %v2, i32 1
	ret <2 x float> %r2
}
declare float @_Z4powrff(float %p0, float %p1) nounwind
define <2 x float> @_Z4powru2v2fu2v2f(<2 x float> %p0, <2 x float> %p1) nounwind {
	%s1_0 = extractelement <2 x float> %p0, i32 0
	%s1_1 = extractelement <2 x float> %p1, i32 0
	%v1 = call float @_Z4powrff(float %s1_0, float %s1_1)
	%r1 = insertelement <2 x float> undef, float %v1, i32 0
	%s2_0 = extractelement <2 x float> %p0, i32 1
	%s2_1 = extractelement <2 x float> %p1, i32 1
	%v2 = call float @_Z4powrff(float %s2_0, float %s2_1)
	%r2 = insertelement <2 x float> %r1, float %v2, i32 1
	ret <2 x float> %r2
}
declare float @_Z9remainderff(float %p0, float %p1) nounwind
define <2 x float> @_Z9remainderu2v2fu2v2f(<2 x float> %p0, <2 x float> %p1) nounwind {
	%s1_0 = extractelement <2 x float> %p0, i32 0
	%s1_1 = extractelement <2 x float> %p1, i32 0
	%v1 = call float @_Z9remainderff(float %s1_0, float %s1_1)
	%r1 = insertelement <2 x float> undef, float %v1, i32 0
	%s2_0 = extractelement <2 x float> %p0, i32 1
	%s2_1 = extractelement <2 x float> %p1, i32 1
	%v2 = call float @_Z9remainderff(float %s2_0, float %s2_1)
	%r2 = insertelement <2 x float> %r1, float %v2, i32 1
	ret <2 x float> %r2
}
declare float @_Z6remquoffPi(float %p0, float %p1, i32* %p2) nounwind
define <2 x float> @_Z6remquou2v2fu2v2fPu2v2i(<2 x float> %p0, <2 x float> %p1, <2 x i32>* %p2) nounwind {
	%s1_0 = extractelement <2 x float> %p0, i32 0
	%s1_1 = extractelement <2 x float> %p1, i32 0
	%s1_2 = getelementptr <2 x i32>* %p2, i32 0, i32 0
	%v1 = call float @_Z6remquoffPi(float %s1_0, float %s1_1, i32* %s1_2)
	%r1 = insertelement <2 x float> undef, float %v1, i32 0
	%s2_0 = extractelement <2 x float> %p0, i32 1
	%s2_1 = extractelement <2 x float> %p1, i32 1
	%s2_2 = getelementptr <2 x i32>* %p2, i32 0, i32 1
	%v2 = call float @_Z6remquoffPi(float %s2_0, float %s2_1, i32* %s2_2)
	%r2 = insertelement <2 x float> %r1, float %v2, i32 1
	ret <2 x float> %r2
}
declare float @_Z4rintf(float %p0) nounwind
define <2 x float> @_Z4rintu2v2f(<2 x float> %p0) nounwind {
	%s1_0 = extractelement <2 x float> %p0, i32 0
	%v1 = call float @_Z4rintf(float %s1_0)
	%r1 = insertelement <2 x float> undef, float %v1, i32 0
	%s2_0 = extractelement <2 x float> %p0, i32 1
	%v2 = call float @_Z4rintf(float %s2_0)
	%r2 = insertelement <2 x float> %r1, float %v2, i32 1
	ret <2 x float> %r2
}
declare float @_Z5rootnfi(float %p0, i32 %p1) nounwind
define <2 x float> @_Z5rootnu2v2fu2v2i(<2 x float> %p0, <2 x i32> %p1) nounwind {
	%s1_0 = extractelement <2 x float> %p0, i32 0
	%s1_1 = extractelement <2 x i32> %p1, i32 0
	%v1 = call float @_Z5rootnfi(float %s1_0, i32 %s1_1)
	%r1 = insertelement <2 x float> undef, float %v1, i32 0
	%s2_0 = extractelement <2 x float> %p0, i32 1
	%s2_1 = extractelement <2 x i32> %p1, i32 1
	%v2 = call float @_Z5rootnfi(float %s2_0, i32 %s2_1)
	%r2 = insertelement <2 x float> %r1, float %v2, i32 1
	ret <2 x float> %r2
}
declare float @_Z5roundf(float %p0) nounwind
define <2 x float> @_Z5roundu2v2f(<2 x float> %p0) nounwind {
	%s1_0 = extractelement <2 x float> %p0, i32 0
	%v1 = call float @_Z5roundf(float %s1_0)
	%r1 = insertelement <2 x float> undef, float %v1, i32 0
	%s2_0 = extractelement <2 x float> %p0, i32 1
	%v2 = call float @_Z5roundf(float %s2_0)
	%r2 = insertelement <2 x float> %r1, float %v2, i32 1
	ret <2 x float> %r2
}
declare float @_Z5rsqrtf(float %p0) nounwind
define <2 x float> @_Z5rsqrtu2v2f(<2 x float> %p0) nounwind {
	%s1_0 = extractelement <2 x float> %p0, i32 0
	%v1 = call float @_Z5rsqrtf(float %s1_0)
	%r1 = insertelement <2 x float> undef, float %v1, i32 0
	%s2_0 = extractelement <2 x float> %p0, i32 1
	%v2 = call float @_Z5rsqrtf(float %s2_0)
	%r2 = insertelement <2 x float> %r1, float %v2, i32 1
	ret <2 x float> %r2
}
declare float @_Z6sincosfPf(float %p0, float* %p1) nounwind
define <2 x float> @_Z6sincosu2v2fPu2v2f(<2 x float> %p0, <2 x float>* %p1) nounwind {
	%s1_0 = extractelement <2 x float> %p0, i32 0
	%s1_1 = getelementptr <2 x float>* %p1, i32 0, i32 0
	%v1 = call float @_Z6sincosfPf(float %s1_0, float* %s1_1)
	%r1 = insertelement <2 x float> undef, float %v1, i32 0
	%s2_0 = extractelement <2 x float> %p0, i32 1
	%s2_1 = getelementptr <2 x float>* %p1, i32 0, i32 1
	%v2 = call float @_Z6sincosfPf(float %s2_0, float* %s2_1)
	%r2 = insertelement <2 x float> %r1, float %v2, i32 1
	ret <2 x float> %r2
}
declare float @_Z4sinhf(float %p0) nounwind
define <2 x float> @_Z4sinhu2v2f(<2 x float> %p0) nounwind {
	%s1_0 = extractelement <2 x float> %p0, i32 0
	%v1 = call float @_Z4sinhf(float %s1_0)
	%r1 = insertelement <2 x float> undef, float %v1, i32 0
	%s2_0 = extractelement <2 x float> %p0, i32 1
	%v2 = call float @_Z4sinhf(float %s2_0)
	%r2 = insertelement <2 x float> %r1, float %v2, i32 1
	ret <2 x float> %r2
}
declare float @_Z5sinpif(float %p0) nounwind
define <2 x float> @_Z5sinpiu2v2f(<2 x float> %p0) nounwind {
	%s1_0 = extractelement <2 x float> %p0, i32 0
	%v1 = call float @_Z5sinpif(float %s1_0)
	%r1 = insertelement <2 x float> undef, float %v1, i32 0
	%s2_0 = extractelement <2 x float> %p0, i32 1
	%v2 = call float @_Z5sinpif(float %s2_0)
	%r2 = insertelement <2 x float> %r1, float %v2, i32 1
	ret <2 x float> %r2
}
declare float @_Z3tanf(float %p0) nounwind
define <2 x float> @_Z3tanu2v2f(<2 x float> %p0) nounwind {
	%s1_0 = extractelement <2 x float> %p0, i32 0
	%v1 = call float @_Z3tanf(float %s1_0)
	%r1 = insertelement <2 x float> undef, float %v1, i32 0
	%s2_0 = extractelement <2 x float> %p0, i32 1
	%v2 = call float @_Z3tanf(float %s2_0)
	%r2 = insertelement <2 x float> %r1, float %v2, i32 1
	ret <2 x float> %r2
}
declare float @_Z4tanhf(float %p0) nounwind
define <2 x float> @_Z4tanhu2v2f(<2 x float> %p0) nounwind {
	%s1_0 = extractelement <2 x float> %p0, i32 0
	%v1 = call float @_Z4tanhf(float %s1_0)
	%r1 = insertelement <2 x float> undef, float %v1, i32 0
	%s2_0 = extractelement <2 x float> %p0, i32 1
	%v2 = call float @_Z4tanhf(float %s2_0)
	%r2 = insertelement <2 x float> %r1, float %v2, i32 1
	ret <2 x float> %r2
}
declare float @_Z5tanpif(float %p0) nounwind
define <2 x float> @_Z5tanpiu2v2f(<2 x float> %p0) nounwind {
	%s1_0 = extractelement <2 x float> %p0, i32 0
	%v1 = call float @_Z5tanpif(float %s1_0)
	%r1 = insertelement <2 x float> undef, float %v1, i32 0
	%s2_0 = extractelement <2 x float> %p0, i32 1
	%v2 = call float @_Z5tanpif(float %s2_0)
	%r2 = insertelement <2 x float> %r1, float %v2, i32 1
	ret <2 x float> %r2
}
declare float @_Z6tgammaf(float %p0) nounwind
define <2 x float> @_Z6tgammau2v2f(<2 x float> %p0) nounwind {
	%s1_0 = extractelement <2 x float> %p0, i32 0
	%v1 = call float @_Z6tgammaf(float %s1_0)
	%r1 = insertelement <2 x float> undef, float %v1, i32 0
	%s2_0 = extractelement <2 x float> %p0, i32 1
	%v2 = call float @_Z6tgammaf(float %s2_0)
	%r2 = insertelement <2 x float> %r1, float %v2, i32 1
	ret <2 x float> %r2
}
declare float @_Z5truncf(float %p0) nounwind
define <2 x float> @_Z5truncu2v2f(<2 x float> %p0) nounwind {
	%s1_0 = extractelement <2 x float> %p0, i32 0
	%v1 = call float @_Z5truncf(float %s1_0)
	%r1 = insertelement <2 x float> undef, float %v1, i32 0
	%s2_0 = extractelement <2 x float> %p0, i32 1
	%v2 = call float @_Z5truncf(float %s2_0)
	%r2 = insertelement <2 x float> %r1, float %v2, i32 1
	ret <2 x float> %r2
}
declare float @_Z8half_cosf(float %p0) nounwind
define <2 x float> @_Z8half_cosu2v2f(<2 x float> %p0) nounwind {
	%s1_0 = extractelement <2 x float> %p0, i32 0
	%v1 = call float @_Z8half_cosf(float %s1_0)
	%r1 = insertelement <2 x float> undef, float %v1, i32 0
	%s2_0 = extractelement <2 x float> %p0, i32 1
	%v2 = call float @_Z8half_cosf(float %s2_0)
	%r2 = insertelement <2 x float> %r1, float %v2, i32 1
	ret <2 x float> %r2
}
declare float @_Z11half_divideff(float %p0, float %p1) nounwind
define <2 x float> @_Z11half_divideu2v2fu2v2f(<2 x float> %p0, <2 x float> %p1) nounwind {
	%s1_0 = extractelement <2 x float> %p0, i32 0
	%s1_1 = extractelement <2 x float> %p1, i32 0
	%v1 = call float @_Z11half_divideff(float %s1_0, float %s1_1)
	%r1 = insertelement <2 x float> undef, float %v1, i32 0
	%s2_0 = extractelement <2 x float> %p0, i32 1
	%s2_1 = extractelement <2 x float> %p1, i32 1
	%v2 = call float @_Z11half_divideff(float %s2_0, float %s2_1)
	%r2 = insertelement <2 x float> %r1, float %v2, i32 1
	ret <2 x float> %r2
}
declare float @_Z8half_expf(float %p0) nounwind
define <2 x float> @_Z8half_expu2v2f(<2 x float> %p0) nounwind {
	%s1_0 = extractelement <2 x float> %p0, i32 0
	%v1 = call float @_Z8half_expf(float %s1_0)
	%r1 = insertelement <2 x float> undef, float %v1, i32 0
	%s2_0 = extractelement <2 x float> %p0, i32 1
	%v2 = call float @_Z8half_expf(float %s2_0)
	%r2 = insertelement <2 x float> %r1, float %v2, i32 1
	ret <2 x float> %r2
}
declare float @_Z9half_exp2f(float %p0) nounwind
define <2 x float> @_Z9half_exp2u2v2f(<2 x float> %p0) nounwind {
	%s1_0 = extractelement <2 x float> %p0, i32 0
	%v1 = call float @_Z9half_exp2f(float %s1_0)
	%r1 = insertelement <2 x float> undef, float %v1, i32 0
	%s2_0 = extractelement <2 x float> %p0, i32 1
	%v2 = call float @_Z9half_exp2f(float %s2_0)
	%r2 = insertelement <2 x float> %r1, float %v2, i32 1
	ret <2 x float> %r2
}
declare float @_Z10half_exp10f(float %p0) nounwind
define <2 x float> @_Z10half_exp10u2v2f(<2 x float> %p0) nounwind {
	%s1_0 = extractelement <2 x float> %p0, i32 0
	%v1 = call float @_Z10half_exp10f(float %s1_0)
	%r1 = insertelement <2 x float> undef, float %v1, i32 0
	%s2_0 = extractelement <2 x float> %p0, i32 1
	%v2 = call float @_Z10half_exp10f(float %s2_0)
	%r2 = insertelement <2 x float> %r1, float %v2, i32 1
	ret <2 x float> %r2
}
declare float @_Z8half_logf(float %p0) nounwind
define <2 x float> @_Z8half_logu2v2f(<2 x float> %p0) nounwind {
	%s1_0 = extractelement <2 x float> %p0, i32 0
	%v1 = call float @_Z8half_logf(float %s1_0)
	%r1 = insertelement <2 x float> undef, float %v1, i32 0
	%s2_0 = extractelement <2 x float> %p0, i32 1
	%v2 = call float @_Z8half_logf(float %s2_0)
	%r2 = insertelement <2 x float> %r1, float %v2, i32 1
	ret <2 x float> %r2
}
declare float @_Z9half_log2f(float %p0) nounwind
define <2 x float> @_Z9half_log2u2v2f(<2 x float> %p0) nounwind {
	%s1_0 = extractelement <2 x float> %p0, i32 0
	%v1 = call float @_Z9half_log2f(float %s1_0)
	%r1 = insertelement <2 x float> undef, float %v1, i32 0
	%s2_0 = extractelement <2 x float> %p0, i32 1
	%v2 = call float @_Z9half_log2f(float %s2_0)
	%r2 = insertelement <2 x float> %r1, float %v2, i32 1
	ret <2 x float> %r2
}
declare float @_Z10half_log10f(float %p0) nounwind
define <2 x float> @_Z10half_log10u2v2f(<2 x float> %p0) nounwind {
	%s1_0 = extractelement <2 x float> %p0, i32 0
	%v1 = call float @_Z10half_log10f(float %s1_0)
	%r1 = insertelement <2 x float> undef, float %v1, i32 0
	%s2_0 = extractelement <2 x float> %p0, i32 1
	%v2 = call float @_Z10half_log10f(float %s2_0)
	%r2 = insertelement <2 x float> %r1, float %v2, i32 1
	ret <2 x float> %r2
}
declare float @_Z9half_powrff(float %p0, float %p1) nounwind
define <2 x float> @_Z9half_powru2v2fu2v2f(<2 x float> %p0, <2 x float> %p1) nounwind {
	%s1_0 = extractelement <2 x float> %p0, i32 0
	%s1_1 = extractelement <2 x float> %p1, i32 0
	%v1 = call float @_Z9half_powrff(float %s1_0, float %s1_1)
	%r1 = insertelement <2 x float> undef, float %v1, i32 0
	%s2_0 = extractelement <2 x float> %p0, i32 1
	%s2_1 = extractelement <2 x float> %p1, i32 1
	%v2 = call float @_Z9half_powrff(float %s2_0, float %s2_1)
	%r2 = insertelement <2 x float> %r1, float %v2, i32 1
	ret <2 x float> %r2
}
declare float @_Z10half_recipf(float %p0) nounwind
define <2 x float> @_Z10half_recipu2v2f(<2 x float> %p0) nounwind {
	%s1_0 = extractelement <2 x float> %p0, i32 0
	%v1 = call float @_Z10half_recipf(float %s1_0)
	%r1 = insertelement <2 x float> undef, float %v1, i32 0
	%s2_0 = extractelement <2 x float> %p0, i32 1
	%v2 = call float @_Z10half_recipf(float %s2_0)
	%r2 = insertelement <2 x float> %r1, float %v2, i32 1
	ret <2 x float> %r2
}
declare float @_Z10half_rsqrtf(float %p0) nounwind
define <2 x float> @_Z10half_rsqrtu2v2f(<2 x float> %p0) nounwind {
	%s1_0 = extractelement <2 x float> %p0, i32 0
	%v1 = call float @_Z10half_rsqrtf(float %s1_0)
	%r1 = insertelement <2 x float> undef, float %v1, i32 0
	%s2_0 = extractelement <2 x float> %p0, i32 1
	%v2 = call float @_Z10half_rsqrtf(float %s2_0)
	%r2 = insertelement <2 x float> %r1, float %v2, i32 1
	ret <2 x float> %r2
}
declare float @_Z8half_sinf(float %p0) nounwind
define <2 x float> @_Z8half_sinu2v2f(<2 x float> %p0) nounwind {
	%s1_0 = extractelement <2 x float> %p0, i32 0
	%v1 = call float @_Z8half_sinf(float %s1_0)
	%r1 = insertelement <2 x float> undef, float %v1, i32 0
	%s2_0 = extractelement <2 x float> %p0, i32 1
	%v2 = call float @_Z8half_sinf(float %s2_0)
	%r2 = insertelement <2 x float> %r1, float %v2, i32 1
	ret <2 x float> %r2
}
declare float @_Z9half_sqrtf(float %p0) nounwind
define <2 x float> @_Z9half_sqrtu2v2f(<2 x float> %p0) nounwind {
	%s1_0 = extractelement <2 x float> %p0, i32 0
	%v1 = call float @_Z9half_sqrtf(float %s1_0)
	%r1 = insertelement <2 x float> undef, float %v1, i32 0
	%s2_0 = extractelement <2 x float> %p0, i32 1
	%v2 = call float @_Z9half_sqrtf(float %s2_0)
	%r2 = insertelement <2 x float> %r1, float %v2, i32 1
	ret <2 x float> %r2
}
declare float @_Z8half_tanf(float %p0) nounwind
define <2 x float> @_Z8half_tanu2v2f(<2 x float> %p0) nounwind {
	%s1_0 = extractelement <2 x float> %p0, i32 0
	%v1 = call float @_Z8half_tanf(float %s1_0)
	%r1 = insertelement <2 x float> undef, float %v1, i32 0
	%s2_0 = extractelement <2 x float> %p0, i32 1
	%v2 = call float @_Z8half_tanf(float %s2_0)
	%r2 = insertelement <2 x float> %r1, float %v2, i32 1
	ret <2 x float> %r2
}
declare float @_Z11native_exp2f(float %p0) nounwind
define <2 x float> @_Z11native_exp2u2v2f(<2 x float> %p0) nounwind {
	%s1_0 = extractelement <2 x float> %p0, i32 0
	%v1 = call float @_Z11native_exp2f(float %s1_0)
	%r1 = insertelement <2 x float> undef, float %v1, i32 0
	%s2_0 = extractelement <2 x float> %p0, i32 1
	%v2 = call float @_Z11native_exp2f(float %s2_0)
	%r2 = insertelement <2 x float> %r1, float %v2, i32 1
	ret <2 x float> %r2
}
declare float @_Z12native_exp10f(float %p0) nounwind
define <2 x float> @_Z12native_exp10u2v2f(<2 x float> %p0) nounwind {
	%s1_0 = extractelement <2 x float> %p0, i32 0
	%v1 = call float @_Z12native_exp10f(float %s1_0)
	%r1 = insertelement <2 x float> undef, float %v1, i32 0
	%s2_0 = extractelement <2 x float> %p0, i32 1
	%v2 = call float @_Z12native_exp10f(float %s2_0)
	%r2 = insertelement <2 x float> %r1, float %v2, i32 1
	ret <2 x float> %r2
}
declare float @_Z11native_log2f(float %p0) nounwind
define <2 x float> @_Z11native_log2u2v2f(<2 x float> %p0) nounwind {
	%s1_0 = extractelement <2 x float> %p0, i32 0
	%v1 = call float @_Z11native_log2f(float %s1_0)
	%r1 = insertelement <2 x float> undef, float %v1, i32 0
	%s2_0 = extractelement <2 x float> %p0, i32 1
	%v2 = call float @_Z11native_log2f(float %s2_0)
	%r2 = insertelement <2 x float> %r1, float %v2, i32 1
	ret <2 x float> %r2
}
declare float @_Z12native_log10f(float %p0) nounwind
define <2 x float> @_Z12native_log10u2v2f(<2 x float> %p0) nounwind {
	%s1_0 = extractelement <2 x float> %p0, i32 0
	%v1 = call float @_Z12native_log10f(float %s1_0)
	%r1 = insertelement <2 x float> undef, float %v1, i32 0
	%s2_0 = extractelement <2 x float> %p0, i32 1
	%v2 = call float @_Z12native_log10f(float %s2_0)
	%r2 = insertelement <2 x float> %r1, float %v2, i32 1
	ret <2 x float> %r2
}
declare float @_Z12native_recipf(float %p0) nounwind
define <2 x float> @_Z12native_recipu2v2f(<2 x float> %p0) nounwind {
	%s1_0 = extractelement <2 x float> %p0, i32 0
	%v1 = call float @_Z12native_recipf(float %s1_0)
	%r1 = insertelement <2 x float> undef, float %v1, i32 0
	%s2_0 = extractelement <2 x float> %p0, i32 1
	%v2 = call float @_Z12native_recipf(float %s2_0)
	%r2 = insertelement <2 x float> %r1, float %v2, i32 1
	ret <2 x float> %r2
}
declare float @_Z12native_rsqrtf(float %p0) nounwind
define <2 x float> @_Z12native_rsqrtu2v2f(<2 x float> %p0) nounwind {
	%s1_0 = extractelement <2 x float> %p0, i32 0
	%v1 = call float @_Z12native_rsqrtf(float %s1_0)
	%r1 = insertelement <2 x float> undef, float %v1, i32 0
	%s2_0 = extractelement <2 x float> %p0, i32 1
	%v2 = call float @_Z12native_rsqrtf(float %s2_0)
	%r2 = insertelement <2 x float> %r1, float %v2, i32 1
	ret <2 x float> %r2
}
declare float @_Z11native_sqrtf(float %p0) nounwind
define <2 x float> @_Z11native_sqrtu2v2f(<2 x float> %p0) nounwind {
	%s1_0 = extractelement <2 x float> %p0, i32 0
	%v1 = call float @_Z11native_sqrtf(float %s1_0)
	%r1 = insertelement <2 x float> undef, float %v1, i32 0
	%s2_0 = extractelement <2 x float> %p0, i32 1
	%v2 = call float @_Z11native_sqrtf(float %s2_0)
	%r2 = insertelement <2 x float> %r1, float %v2, i32 1
	ret <2 x float> %r2
}
declare float @_Z10native_sinf(float %p0) nounwind
define <2 x float> @_Z10native_sinu2v2f(<2 x float> %p0) nounwind {
	%s1_0 = extractelement <2 x float> %p0, i32 0
	%v1 = call float @_Z10native_sinf(float %s1_0)
	%r1 = insertelement <2 x float> undef, float %v1, i32 0
	%s2_0 = extractelement <2 x float> %p0, i32 1
	%v2 = call float @_Z10native_sinf(float %s2_0)
	%r2 = insertelement <2 x float> %r1, float %v2, i32 1
	ret <2 x float> %r2
}
declare float @_Z10native_cosf(float %p0) nounwind
define <2 x float> @_Z10native_cosu2v2f(<2 x float> %p0) nounwind {
	%s1_0 = extractelement <2 x float> %p0, i32 0
	%v1 = call float @_Z10native_cosf(float %s1_0)
	%r1 = insertelement <2 x float> undef, float %v1, i32 0
	%s2_0 = extractelement <2 x float> %p0, i32 1
	%v2 = call float @_Z10native_cosf(float %s2_0)
	%r2 = insertelement <2 x float> %r1, float %v2, i32 1
	ret <2 x float> %r2
}
declare float @_Z10native_expf(float %p0) nounwind
define <2 x float> @_Z10native_expu2v2f(<2 x float> %p0) nounwind {
	%s1_0 = extractelement <2 x float> %p0, i32 0
	%v1 = call float @_Z10native_expf(float %s1_0)
	%r1 = insertelement <2 x float> undef, float %v1, i32 0
	%s2_0 = extractelement <2 x float> %p0, i32 1
	%v2 = call float @_Z10native_expf(float %s2_0)
	%r2 = insertelement <2 x float> %r1, float %v2, i32 1
	ret <2 x float> %r2
}
declare float @_Z10native_logf(float %p0) nounwind
define <2 x float> @_Z10native_logu2v2f(<2 x float> %p0) nounwind {
	%s1_0 = extractelement <2 x float> %p0, i32 0
	%v1 = call float @_Z10native_logf(float %s1_0)
	%r1 = insertelement <2 x float> undef, float %v1, i32 0
	%s2_0 = extractelement <2 x float> %p0, i32 1
	%v2 = call float @_Z10native_logf(float %s2_0)
	%r2 = insertelement <2 x float> %r1, float %v2, i32 1
	ret <2 x float> %r2
}
declare float @_Z10native_tanf(float %p0) nounwind
define <2 x float> @_Z10native_tanu2v2f(<2 x float> %p0) nounwind {
	%s1_0 = extractelement <2 x float> %p0, i32 0
	%v1 = call float @_Z10native_tanf(float %s1_0)
	%r1 = insertelement <2 x float> undef, float %v1, i32 0
	%s2_0 = extractelement <2 x float> %p0, i32 1
	%v2 = call float @_Z10native_tanf(float %s2_0)
	%r2 = insertelement <2 x float> %r1, float %v2, i32 1
	ret <2 x float> %r2
}
declare float @_Z13native_divideff(float %p0, float %p1) nounwind
define <2 x float> @_Z13native_divideu2v2fu2v2f(<2 x float> %p0, <2 x float> %p1) nounwind {
	%s1_0 = extractelement <2 x float> %p0, i32 0
	%s1_1 = extractelement <2 x float> %p1, i32 0
	%v1 = call float @_Z13native_divideff(float %s1_0, float %s1_1)
	%r1 = insertelement <2 x float> undef, float %v1, i32 0
	%s2_0 = extractelement <2 x float> %p0, i32 1
	%s2_1 = extractelement <2 x float> %p1, i32 1
	%v2 = call float @_Z13native_divideff(float %s2_0, float %s2_1)
	%r2 = insertelement <2 x float> %r1, float %v2, i32 1
	ret <2 x float> %r2
}
declare float @_Z11native_powrff(float %p0, float %p1) nounwind
define <2 x float> @_Z11native_powru2v2fu2v2f(<2 x float> %p0, <2 x float> %p1) nounwind {
	%s1_0 = extractelement <2 x float> %p0, i32 0
	%s1_1 = extractelement <2 x float> %p1, i32 0
	%v1 = call float @_Z11native_powrff(float %s1_0, float %s1_1)
	%r1 = insertelement <2 x float> undef, float %v1, i32 0
	%s2_0 = extractelement <2 x float> %p0, i32 1
	%s2_1 = extractelement <2 x float> %p1, i32 1
	%v2 = call float @_Z11native_powrff(float %s2_0, float %s2_1)
	%r2 = insertelement <2 x float> %r1, float %v2, i32 1
	ret <2 x float> %r2
}
declare float @_Z12native_ldexpfi(float %p0, i32 %p1) nounwind
define <2 x float> @_Z12native_ldexpu2v2fu2v2i(<2 x float> %p0, <2 x i32> %p1) nounwind {
	%s1_0 = extractelement <2 x float> %p0, i32 0
	%s1_1 = extractelement <2 x i32> %p1, i32 0
	%v1 = call float @_Z12native_ldexpfi(float %s1_0, i32 %s1_1)
	%r1 = insertelement <2 x float> undef, float %v1, i32 0
	%s2_0 = extractelement <2 x float> %p0, i32 1
	%s2_1 = extractelement <2 x i32> %p1, i32 1
	%v2 = call float @_Z12native_ldexpfi(float %s2_0, i32 %s2_1)
	%r2 = insertelement <2 x float> %r1, float %v2, i32 1
	ret <2 x float> %r2
}
declare double @_Z4acosd(double %p0) nounwind
define <2 x double> @_Z4acosu2v2d(<2 x double> %p0) nounwind {
	%s1_0 = extractelement <2 x double> %p0, i32 0
	%v1 = call double @_Z4acosd(double %s1_0)
	%r1 = insertelement <2 x double> undef, double %v1, i32 0
	%s2_0 = extractelement <2 x double> %p0, i32 1
	%v2 = call double @_Z4acosd(double %s2_0)
	%r2 = insertelement <2 x double> %r1, double %v2, i32 1
	ret <2 x double> %r2
}
declare double @_Z5acoshd(double %p0) nounwind
define <2 x double> @_Z5acoshu2v2d(<2 x double> %p0) nounwind {
	%s1_0 = extractelement <2 x double> %p0, i32 0
	%v1 = call double @_Z5acoshd(double %s1_0)
	%r1 = insertelement <2 x double> undef, double %v1, i32 0
	%s2_0 = extractelement <2 x double> %p0, i32 1
	%v2 = call double @_Z5acoshd(double %s2_0)
	%r2 = insertelement <2 x double> %r1, double %v2, i32 1
	ret <2 x double> %r2
}
declare double @_Z6acospid(double %p0) nounwind
define <2 x double> @_Z6acospiu2v2d(<2 x double> %p0) nounwind {
	%s1_0 = extractelement <2 x double> %p0, i32 0
	%v1 = call double @_Z6acospid(double %s1_0)
	%r1 = insertelement <2 x double> undef, double %v1, i32 0
	%s2_0 = extractelement <2 x double> %p0, i32 1
	%v2 = call double @_Z6acospid(double %s2_0)
	%r2 = insertelement <2 x double> %r1, double %v2, i32 1
	ret <2 x double> %r2
}
declare double @_Z4asind(double %p0) nounwind
define <2 x double> @_Z4asinu2v2d(<2 x double> %p0) nounwind {
	%s1_0 = extractelement <2 x double> %p0, i32 0
	%v1 = call double @_Z4asind(double %s1_0)
	%r1 = insertelement <2 x double> undef, double %v1, i32 0
	%s2_0 = extractelement <2 x double> %p0, i32 1
	%v2 = call double @_Z4asind(double %s2_0)
	%r2 = insertelement <2 x double> %r1, double %v2, i32 1
	ret <2 x double> %r2
}
declare double @_Z5asinhd(double %p0) nounwind
define <2 x double> @_Z5asinhu2v2d(<2 x double> %p0) nounwind {
	%s1_0 = extractelement <2 x double> %p0, i32 0
	%v1 = call double @_Z5asinhd(double %s1_0)
	%r1 = insertelement <2 x double> undef, double %v1, i32 0
	%s2_0 = extractelement <2 x double> %p0, i32 1
	%v2 = call double @_Z5asinhd(double %s2_0)
	%r2 = insertelement <2 x double> %r1, double %v2, i32 1
	ret <2 x double> %r2
}
declare double @_Z6asinpid(double %p0) nounwind
define <2 x double> @_Z6asinpiu2v2d(<2 x double> %p0) nounwind {
	%s1_0 = extractelement <2 x double> %p0, i32 0
	%v1 = call double @_Z6asinpid(double %s1_0)
	%r1 = insertelement <2 x double> undef, double %v1, i32 0
	%s2_0 = extractelement <2 x double> %p0, i32 1
	%v2 = call double @_Z6asinpid(double %s2_0)
	%r2 = insertelement <2 x double> %r1, double %v2, i32 1
	ret <2 x double> %r2
}
declare double @_Z4atand(double %p0) nounwind
define <2 x double> @_Z4atanu2v2d(<2 x double> %p0) nounwind {
	%s1_0 = extractelement <2 x double> %p0, i32 0
	%v1 = call double @_Z4atand(double %s1_0)
	%r1 = insertelement <2 x double> undef, double %v1, i32 0
	%s2_0 = extractelement <2 x double> %p0, i32 1
	%v2 = call double @_Z4atand(double %s2_0)
	%r2 = insertelement <2 x double> %r1, double %v2, i32 1
	ret <2 x double> %r2
}
declare double @_Z5atan2dd(double %p0, double %p1) nounwind
define <2 x double> @_Z5atan2u2v2du2v2d(<2 x double> %p0, <2 x double> %p1) nounwind {
	%s1_0 = extractelement <2 x double> %p0, i32 0
	%s1_1 = extractelement <2 x double> %p1, i32 0
	%v1 = call double @_Z5atan2dd(double %s1_0, double %s1_1)
	%r1 = insertelement <2 x double> undef, double %v1, i32 0
	%s2_0 = extractelement <2 x double> %p0, i32 1
	%s2_1 = extractelement <2 x double> %p1, i32 1
	%v2 = call double @_Z5atan2dd(double %s2_0, double %s2_1)
	%r2 = insertelement <2 x double> %r1, double %v2, i32 1
	ret <2 x double> %r2
}
declare double @_Z5atanhd(double %p0) nounwind
define <2 x double> @_Z5atanhu2v2d(<2 x double> %p0) nounwind {
	%s1_0 = extractelement <2 x double> %p0, i32 0
	%v1 = call double @_Z5atanhd(double %s1_0)
	%r1 = insertelement <2 x double> undef, double %v1, i32 0
	%s2_0 = extractelement <2 x double> %p0, i32 1
	%v2 = call double @_Z5atanhd(double %s2_0)
	%r2 = insertelement <2 x double> %r1, double %v2, i32 1
	ret <2 x double> %r2
}
declare double @_Z6atanpid(double %p0) nounwind
define <2 x double> @_Z6atanpiu2v2d(<2 x double> %p0) nounwind {
	%s1_0 = extractelement <2 x double> %p0, i32 0
	%v1 = call double @_Z6atanpid(double %s1_0)
	%r1 = insertelement <2 x double> undef, double %v1, i32 0
	%s2_0 = extractelement <2 x double> %p0, i32 1
	%v2 = call double @_Z6atanpid(double %s2_0)
	%r2 = insertelement <2 x double> %r1, double %v2, i32 1
	ret <2 x double> %r2
}
declare double @_Z7atan2pidd(double %p0, double %p1) nounwind
define <2 x double> @_Z7atan2piu2v2du2v2d(<2 x double> %p0, <2 x double> %p1) nounwind {
	%s1_0 = extractelement <2 x double> %p0, i32 0
	%s1_1 = extractelement <2 x double> %p1, i32 0
	%v1 = call double @_Z7atan2pidd(double %s1_0, double %s1_1)
	%r1 = insertelement <2 x double> undef, double %v1, i32 0
	%s2_0 = extractelement <2 x double> %p0, i32 1
	%s2_1 = extractelement <2 x double> %p1, i32 1
	%v2 = call double @_Z7atan2pidd(double %s2_0, double %s2_1)
	%r2 = insertelement <2 x double> %r1, double %v2, i32 1
	ret <2 x double> %r2
}
declare double @_Z4cbrtd(double %p0) nounwind
define <2 x double> @_Z4cbrtu2v2d(<2 x double> %p0) nounwind {
	%s1_0 = extractelement <2 x double> %p0, i32 0
	%v1 = call double @_Z4cbrtd(double %s1_0)
	%r1 = insertelement <2 x double> undef, double %v1, i32 0
	%s2_0 = extractelement <2 x double> %p0, i32 1
	%v2 = call double @_Z4cbrtd(double %s2_0)
	%r2 = insertelement <2 x double> %r1, double %v2, i32 1
	ret <2 x double> %r2
}
declare double @_Z4ceild(double %p0) nounwind
define <2 x double> @_Z4ceilu2v2d(<2 x double> %p0) nounwind {
	%s1_0 = extractelement <2 x double> %p0, i32 0
	%v1 = call double @_Z4ceild(double %s1_0)
	%r1 = insertelement <2 x double> undef, double %v1, i32 0
	%s2_0 = extractelement <2 x double> %p0, i32 1
	%v2 = call double @_Z4ceild(double %s2_0)
	%r2 = insertelement <2 x double> %r1, double %v2, i32 1
	ret <2 x double> %r2
}
declare double @_Z8copysigndd(double %p0, double %p1) nounwind
define <2 x double> @_Z8copysignu2v2du2v2d(<2 x double> %p0, <2 x double> %p1) nounwind {
	%s1_0 = extractelement <2 x double> %p0, i32 0
	%s1_1 = extractelement <2 x double> %p1, i32 0
	%v1 = call double @_Z8copysigndd(double %s1_0, double %s1_1)
	%r1 = insertelement <2 x double> undef, double %v1, i32 0
	%s2_0 = extractelement <2 x double> %p0, i32 1
	%s2_1 = extractelement <2 x double> %p1, i32 1
	%v2 = call double @_Z8copysigndd(double %s2_0, double %s2_1)
	%r2 = insertelement <2 x double> %r1, double %v2, i32 1
	ret <2 x double> %r2
}
declare double @_Z4coshd(double %p0) nounwind
define <2 x double> @_Z4coshu2v2d(<2 x double> %p0) nounwind {
	%s1_0 = extractelement <2 x double> %p0, i32 0
	%v1 = call double @_Z4coshd(double %s1_0)
	%r1 = insertelement <2 x double> undef, double %v1, i32 0
	%s2_0 = extractelement <2 x double> %p0, i32 1
	%v2 = call double @_Z4coshd(double %s2_0)
	%r2 = insertelement <2 x double> %r1, double %v2, i32 1
	ret <2 x double> %r2
}
declare double @_Z5cospid(double %p0) nounwind
define <2 x double> @_Z5cospiu2v2d(<2 x double> %p0) nounwind {
	%s1_0 = extractelement <2 x double> %p0, i32 0
	%v1 = call double @_Z5cospid(double %s1_0)
	%r1 = insertelement <2 x double> undef, double %v1, i32 0
	%s2_0 = extractelement <2 x double> %p0, i32 1
	%v2 = call double @_Z5cospid(double %s2_0)
	%r2 = insertelement <2 x double> %r1, double %v2, i32 1
	ret <2 x double> %r2
}
declare double @_Z4erfcd(double %p0) nounwind
define <2 x double> @_Z4erfcu2v2d(<2 x double> %p0) nounwind {
	%s1_0 = extractelement <2 x double> %p0, i32 0
	%v1 = call double @_Z4erfcd(double %s1_0)
	%r1 = insertelement <2 x double> undef, double %v1, i32 0
	%s2_0 = extractelement <2 x double> %p0, i32 1
	%v2 = call double @_Z4erfcd(double %s2_0)
	%r2 = insertelement <2 x double> %r1, double %v2, i32 1
	ret <2 x double> %r2
}
declare double @_Z3erfd(double %p0) nounwind
define <2 x double> @_Z3erfu2v2d(<2 x double> %p0) nounwind {
	%s1_0 = extractelement <2 x double> %p0, i32 0
	%v1 = call double @_Z3erfd(double %s1_0)
	%r1 = insertelement <2 x double> undef, double %v1, i32 0
	%s2_0 = extractelement <2 x double> %p0, i32 1
	%v2 = call double @_Z3erfd(double %s2_0)
	%r2 = insertelement <2 x double> %r1, double %v2, i32 1
	ret <2 x double> %r2
}
declare double @_Z4exp2d(double %p0) nounwind
define <2 x double> @_Z4exp2u2v2d(<2 x double> %p0) nounwind {
	%s1_0 = extractelement <2 x double> %p0, i32 0
	%v1 = call double @_Z4exp2d(double %s1_0)
	%r1 = insertelement <2 x double> undef, double %v1, i32 0
	%s2_0 = extractelement <2 x double> %p0, i32 1
	%v2 = call double @_Z4exp2d(double %s2_0)
	%r2 = insertelement <2 x double> %r1, double %v2, i32 1
	ret <2 x double> %r2
}
declare double @_Z5exp10d(double %p0) nounwind
define <2 x double> @_Z5exp10u2v2d(<2 x double> %p0) nounwind {
	%s1_0 = extractelement <2 x double> %p0, i32 0
	%v1 = call double @_Z5exp10d(double %s1_0)
	%r1 = insertelement <2 x double> undef, double %v1, i32 0
	%s2_0 = extractelement <2 x double> %p0, i32 1
	%v2 = call double @_Z5exp10d(double %s2_0)
	%r2 = insertelement <2 x double> %r1, double %v2, i32 1
	ret <2 x double> %r2
}
declare double @_Z5expm1d(double %p0) nounwind
define <2 x double> @_Z5expm1u2v2d(<2 x double> %p0) nounwind {
	%s1_0 = extractelement <2 x double> %p0, i32 0
	%v1 = call double @_Z5expm1d(double %s1_0)
	%r1 = insertelement <2 x double> undef, double %v1, i32 0
	%s2_0 = extractelement <2 x double> %p0, i32 1
	%v2 = call double @_Z5expm1d(double %s2_0)
	%r2 = insertelement <2 x double> %r1, double %v2, i32 1
	ret <2 x double> %r2
}
declare double @_Z4fdimdd(double %p0, double %p1) nounwind
define <2 x double> @_Z4fdimu2v2du2v2d(<2 x double> %p0, <2 x double> %p1) nounwind {
	%s1_0 = extractelement <2 x double> %p0, i32 0
	%s1_1 = extractelement <2 x double> %p1, i32 0
	%v1 = call double @_Z4fdimdd(double %s1_0, double %s1_1)
	%r1 = insertelement <2 x double> undef, double %v1, i32 0
	%s2_0 = extractelement <2 x double> %p0, i32 1
	%s2_1 = extractelement <2 x double> %p1, i32 1
	%v2 = call double @_Z4fdimdd(double %s2_0, double %s2_1)
	%r2 = insertelement <2 x double> %r1, double %v2, i32 1
	ret <2 x double> %r2
}
declare double @_Z4fmaxdd(double %p0, double %p1) nounwind
define <2 x double> @_Z4fmaxu2v2du2v2d(<2 x double> %p0, <2 x double> %p1) nounwind {
	%s1_0 = extractelement <2 x double> %p0, i32 0
	%s1_1 = extractelement <2 x double> %p1, i32 0
	%v1 = call double @_Z4fmaxdd(double %s1_0, double %s1_1)
	%r1 = insertelement <2 x double> undef, double %v1, i32 0
	%s2_0 = extractelement <2 x double> %p0, i32 1
	%s2_1 = extractelement <2 x double> %p1, i32 1
	%v2 = call double @_Z4fmaxdd(double %s2_0, double %s2_1)
	%r2 = insertelement <2 x double> %r1, double %v2, i32 1
	ret <2 x double> %r2
}
declare double @_Z4fmindd(double %p0, double %p1) nounwind
define <2 x double> @_Z4fminu2v2du2v2d(<2 x double> %p0, <2 x double> %p1) nounwind {
	%s1_0 = extractelement <2 x double> %p0, i32 0
	%s1_1 = extractelement <2 x double> %p1, i32 0
	%v1 = call double @_Z4fmindd(double %s1_0, double %s1_1)
	%r1 = insertelement <2 x double> undef, double %v1, i32 0
	%s2_0 = extractelement <2 x double> %p0, i32 1
	%s2_1 = extractelement <2 x double> %p1, i32 1
	%v2 = call double @_Z4fmindd(double %s2_0, double %s2_1)
	%r2 = insertelement <2 x double> %r1, double %v2, i32 1
	ret <2 x double> %r2
}
declare double @_Z4fmoddd(double %p0, double %p1) nounwind
define <2 x double> @_Z4fmodu2v2du2v2d(<2 x double> %p0, <2 x double> %p1) nounwind {
	%s1_0 = extractelement <2 x double> %p0, i32 0
	%s1_1 = extractelement <2 x double> %p1, i32 0
	%v1 = call double @_Z4fmoddd(double %s1_0, double %s1_1)
	%r1 = insertelement <2 x double> undef, double %v1, i32 0
	%s2_0 = extractelement <2 x double> %p0, i32 1
	%s2_1 = extractelement <2 x double> %p1, i32 1
	%v2 = call double @_Z4fmoddd(double %s2_0, double %s2_1)
	%r2 = insertelement <2 x double> %r1, double %v2, i32 1
	ret <2 x double> %r2
}
declare double @_Z5fractdPd(double %p0, double* %p1) nounwind
define <2 x double> @_Z5fractu2v2dPu2v2d(<2 x double> %p0, <2 x double>* %p1) nounwind {
	%s1_0 = extractelement <2 x double> %p0, i32 0
	%s1_1 = getelementptr <2 x double>* %p1, i32 0, i32 0
	%v1 = call double @_Z5fractdPd(double %s1_0, double* %s1_1)
	%r1 = insertelement <2 x double> undef, double %v1, i32 0
	%s2_0 = extractelement <2 x double> %p0, i32 1
	%s2_1 = getelementptr <2 x double>* %p1, i32 0, i32 1
	%v2 = call double @_Z5fractdPd(double %s2_0, double* %s2_1)
	%r2 = insertelement <2 x double> %r1, double %v2, i32 1
	ret <2 x double> %r2
}
declare double @_Z5frexpdPi(double %p0, i32* %p1) nounwind
define <2 x double> @_Z5frexpu2v2dPu2v2i(<2 x double> %p0, <2 x i32>* %p1) nounwind {
	%s1_0 = extractelement <2 x double> %p0, i32 0
	%s1_1 = getelementptr <2 x i32>* %p1, i32 0, i32 0
	%v1 = call double @_Z5frexpdPi(double %s1_0, i32* %s1_1)
	%r1 = insertelement <2 x double> undef, double %v1, i32 0
	%s2_0 = extractelement <2 x double> %p0, i32 1
	%s2_1 = getelementptr <2 x i32>* %p1, i32 0, i32 1
	%v2 = call double @_Z5frexpdPi(double %s2_0, i32* %s2_1)
	%r2 = insertelement <2 x double> %r1, double %v2, i32 1
	ret <2 x double> %r2
}
declare double @_Z5hypotdd(double %p0, double %p1) nounwind
define <2 x double> @_Z5hypotu2v2du2v2d(<2 x double> %p0, <2 x double> %p1) nounwind {
	%s1_0 = extractelement <2 x double> %p0, i32 0
	%s1_1 = extractelement <2 x double> %p1, i32 0
	%v1 = call double @_Z5hypotdd(double %s1_0, double %s1_1)
	%r1 = insertelement <2 x double> undef, double %v1, i32 0
	%s2_0 = extractelement <2 x double> %p0, i32 1
	%s2_1 = extractelement <2 x double> %p1, i32 1
	%v2 = call double @_Z5hypotdd(double %s2_0, double %s2_1)
	%r2 = insertelement <2 x double> %r1, double %v2, i32 1
	ret <2 x double> %r2
}
declare double @_Z5ldexpdi(double %p0, i32 %p1) nounwind
define <2 x double> @_Z5ldexpu2v2du2v2i(<2 x double> %p0, <2 x i32> %p1) nounwind {
	%s1_0 = extractelement <2 x double> %p0, i32 0
	%s1_1 = extractelement <2 x i32> %p1, i32 0
	%v1 = call double @_Z5ldexpdi(double %s1_0, i32 %s1_1)
	%r1 = insertelement <2 x double> undef, double %v1, i32 0
	%s2_0 = extractelement <2 x double> %p0, i32 1
	%s2_1 = extractelement <2 x i32> %p1, i32 1
	%v2 = call double @_Z5ldexpdi(double %s2_0, i32 %s2_1)
	%r2 = insertelement <2 x double> %r1, double %v2, i32 1
	ret <2 x double> %r2
}
declare double @_Z6lgammad(double %p0) nounwind
define <2 x double> @_Z6lgammau2v2d(<2 x double> %p0) nounwind {
	%s1_0 = extractelement <2 x double> %p0, i32 0
	%v1 = call double @_Z6lgammad(double %s1_0)
	%r1 = insertelement <2 x double> undef, double %v1, i32 0
	%s2_0 = extractelement <2 x double> %p0, i32 1
	%v2 = call double @_Z6lgammad(double %s2_0)
	%r2 = insertelement <2 x double> %r1, double %v2, i32 1
	ret <2 x double> %r2
}
declare double @_Z8lgamma_rdPi(double %p0, i32* %p1) nounwind
define <2 x double> @_Z8lgamma_ru2v2dPu2v2i(<2 x double> %p0, <2 x i32>* %p1) nounwind {
	%s1_0 = extractelement <2 x double> %p0, i32 0
	%s1_1 = getelementptr <2 x i32>* %p1, i32 0, i32 0
	%v1 = call double @_Z8lgamma_rdPi(double %s1_0, i32* %s1_1)
	%r1 = insertelement <2 x double> undef, double %v1, i32 0
	%s2_0 = extractelement <2 x double> %p0, i32 1
	%s2_1 = getelementptr <2 x i32>* %p1, i32 0, i32 1
	%v2 = call double @_Z8lgamma_rdPi(double %s2_0, i32* %s2_1)
	%r2 = insertelement <2 x double> %r1, double %v2, i32 1
	ret <2 x double> %r2
}
declare double @_Z4log2d(double %p0) nounwind
define <2 x double> @_Z4log2u2v2d(<2 x double> %p0) nounwind {
	%s1_0 = extractelement <2 x double> %p0, i32 0
	%v1 = call double @_Z4log2d(double %s1_0)
	%r1 = insertelement <2 x double> undef, double %v1, i32 0
	%s2_0 = extractelement <2 x double> %p0, i32 1
	%v2 = call double @_Z4log2d(double %s2_0)
	%r2 = insertelement <2 x double> %r1, double %v2, i32 1
	ret <2 x double> %r2
}
declare double @_Z5log10d(double %p0) nounwind
define <2 x double> @_Z5log10u2v2d(<2 x double> %p0) nounwind {
	%s1_0 = extractelement <2 x double> %p0, i32 0
	%v1 = call double @_Z5log10d(double %s1_0)
	%r1 = insertelement <2 x double> undef, double %v1, i32 0
	%s2_0 = extractelement <2 x double> %p0, i32 1
	%v2 = call double @_Z5log10d(double %s2_0)
	%r2 = insertelement <2 x double> %r1, double %v2, i32 1
	ret <2 x double> %r2
}
declare double @_Z5log1pd(double %p0) nounwind
define <2 x double> @_Z5log1pu2v2d(<2 x double> %p0) nounwind {
	%s1_0 = extractelement <2 x double> %p0, i32 0
	%v1 = call double @_Z5log1pd(double %s1_0)
	%r1 = insertelement <2 x double> undef, double %v1, i32 0
	%s2_0 = extractelement <2 x double> %p0, i32 1
	%v2 = call double @_Z5log1pd(double %s2_0)
	%r2 = insertelement <2 x double> %r1, double %v2, i32 1
	ret <2 x double> %r2
}
declare double @_Z4logbd(double %p0) nounwind
define <2 x double> @_Z4logbu2v2d(<2 x double> %p0) nounwind {
	%s1_0 = extractelement <2 x double> %p0, i32 0
	%v1 = call double @_Z4logbd(double %s1_0)
	%r1 = insertelement <2 x double> undef, double %v1, i32 0
	%s2_0 = extractelement <2 x double> %p0, i32 1
	%v2 = call double @_Z4logbd(double %s2_0)
	%r2 = insertelement <2 x double> %r1, double %v2, i32 1
	ret <2 x double> %r2
}
declare double @_Z3madddd(double %p0, double %p1, double %p2) nounwind
define <2 x double> @_Z3madu2v2du2v2du2v2d(<2 x double> %p0, <2 x double> %p1, <2 x double> %p2) nounwind {
	%s1_0 = extractelement <2 x double> %p0, i32 0
	%s1_1 = extractelement <2 x double> %p1, i32 0
	%s1_2 = extractelement <2 x double> %p2, i32 0
	%v1 = call double @_Z3madddd(double %s1_0, double %s1_1, double %s1_2)
	%r1 = insertelement <2 x double> undef, double %v1, i32 0
	%s2_0 = extractelement <2 x double> %p0, i32 1
	%s2_1 = extractelement <2 x double> %p1, i32 1
	%s2_2 = extractelement <2 x double> %p2, i32 1
	%v2 = call double @_Z3madddd(double %s2_0, double %s2_1, double %s2_2)
	%r2 = insertelement <2 x double> %r1, double %v2, i32 1
	ret <2 x double> %r2
}
declare double @_Z6maxmagdd(double %p0, double %p1) nounwind
define <2 x double> @_Z6maxmagu2v2du2v2d(<2 x double> %p0, <2 x double> %p1) nounwind {
	%s1_0 = extractelement <2 x double> %p0, i32 0
	%s1_1 = extractelement <2 x double> %p1, i32 0
	%v1 = call double @_Z6maxmagdd(double %s1_0, double %s1_1)
	%r1 = insertelement <2 x double> undef, double %v1, i32 0
	%s2_0 = extractelement <2 x double> %p0, i32 1
	%s2_1 = extractelement <2 x double> %p1, i32 1
	%v2 = call double @_Z6maxmagdd(double %s2_0, double %s2_1)
	%r2 = insertelement <2 x double> %r1, double %v2, i32 1
	ret <2 x double> %r2
}
declare double @_Z6minmagdd(double %p0, double %p1) nounwind
define <2 x double> @_Z6minmagu2v2du2v2d(<2 x double> %p0, <2 x double> %p1) nounwind {
	%s1_0 = extractelement <2 x double> %p0, i32 0
	%s1_1 = extractelement <2 x double> %p1, i32 0
	%v1 = call double @_Z6minmagdd(double %s1_0, double %s1_1)
	%r1 = insertelement <2 x double> undef, double %v1, i32 0
	%s2_0 = extractelement <2 x double> %p0, i32 1
	%s2_1 = extractelement <2 x double> %p1, i32 1
	%v2 = call double @_Z6minmagdd(double %s2_0, double %s2_1)
	%r2 = insertelement <2 x double> %r1, double %v2, i32 1
	ret <2 x double> %r2
}
declare double @_Z4modfdPd(double %p0, double* %p1) nounwind
define <2 x double> @_Z4modfu2v2dPu2v2d(<2 x double> %p0, <2 x double>* %p1) nounwind {
	%s1_0 = extractelement <2 x double> %p0, i32 0
	%s1_1 = getelementptr <2 x double>* %p1, i32 0, i32 0
	%v1 = call double @_Z4modfdPd(double %s1_0, double* %s1_1)
	%r1 = insertelement <2 x double> undef, double %v1, i32 0
	%s2_0 = extractelement <2 x double> %p0, i32 1
	%s2_1 = getelementptr <2 x double>* %p1, i32 0, i32 1
	%v2 = call double @_Z4modfdPd(double %s2_0, double* %s2_1)
	%r2 = insertelement <2 x double> %r1, double %v2, i32 1
	ret <2 x double> %r2
}
declare double @_Z9nextafterdd(double %p0, double %p1) nounwind
define <2 x double> @_Z9nextafteru2v2du2v2d(<2 x double> %p0, <2 x double> %p1) nounwind {
	%s1_0 = extractelement <2 x double> %p0, i32 0
	%s1_1 = extractelement <2 x double> %p1, i32 0
	%v1 = call double @_Z9nextafterdd(double %s1_0, double %s1_1)
	%r1 = insertelement <2 x double> undef, double %v1, i32 0
	%s2_0 = extractelement <2 x double> %p0, i32 1
	%s2_1 = extractelement <2 x double> %p1, i32 1
	%v2 = call double @_Z9nextafterdd(double %s2_0, double %s2_1)
	%r2 = insertelement <2 x double> %r1, double %v2, i32 1
	ret <2 x double> %r2
}
declare double @_Z4powrdd(double %p0, double %p1) nounwind
define <2 x double> @_Z4powru2v2du2v2d(<2 x double> %p0, <2 x double> %p1) nounwind {
	%s1_0 = extractelement <2 x double> %p0, i32 0
	%s1_1 = extractelement <2 x double> %p1, i32 0
	%v1 = call double @_Z4powrdd(double %s1_0, double %s1_1)
	%r1 = insertelement <2 x double> undef, double %v1, i32 0
	%s2_0 = extractelement <2 x double> %p0, i32 1
	%s2_1 = extractelement <2 x double> %p1, i32 1
	%v2 = call double @_Z4powrdd(double %s2_0, double %s2_1)
	%r2 = insertelement <2 x double> %r1, double %v2, i32 1
	ret <2 x double> %r2
}
declare double @_Z9remainderdd(double %p0, double %p1) nounwind
define <2 x double> @_Z9remainderu2v2du2v2d(<2 x double> %p0, <2 x double> %p1) nounwind {
	%s1_0 = extractelement <2 x double> %p0, i32 0
	%s1_1 = extractelement <2 x double> %p1, i32 0
	%v1 = call double @_Z9remainderdd(double %s1_0, double %s1_1)
	%r1 = insertelement <2 x double> undef, double %v1, i32 0
	%s2_0 = extractelement <2 x double> %p0, i32 1
	%s2_1 = extractelement <2 x double> %p1, i32 1
	%v2 = call double @_Z9remainderdd(double %s2_0, double %s2_1)
	%r2 = insertelement <2 x double> %r1, double %v2, i32 1
	ret <2 x double> %r2
}
declare double @_Z6remquoddPi(double %p0, double %p1, i32* %p2) nounwind
define <2 x double> @_Z6remquou2v2du2v2dPu2v2i(<2 x double> %p0, <2 x double> %p1, <2 x i32>* %p2) nounwind {
	%s1_0 = extractelement <2 x double> %p0, i32 0
	%s1_1 = extractelement <2 x double> %p1, i32 0
	%s1_2 = getelementptr <2 x i32>* %p2, i32 0, i32 0
	%v1 = call double @_Z6remquoddPi(double %s1_0, double %s1_1, i32* %s1_2)
	%r1 = insertelement <2 x double> undef, double %v1, i32 0
	%s2_0 = extractelement <2 x double> %p0, i32 1
	%s2_1 = extractelement <2 x double> %p1, i32 1
	%s2_2 = getelementptr <2 x i32>* %p2, i32 0, i32 1
	%v2 = call double @_Z6remquoddPi(double %s2_0, double %s2_1, i32* %s2_2)
	%r2 = insertelement <2 x double> %r1, double %v2, i32 1
	ret <2 x double> %r2
}
declare double @_Z4rintd(double %p0) nounwind
define <2 x double> @_Z4rintu2v2d(<2 x double> %p0) nounwind {
	%s1_0 = extractelement <2 x double> %p0, i32 0
	%v1 = call double @_Z4rintd(double %s1_0)
	%r1 = insertelement <2 x double> undef, double %v1, i32 0
	%s2_0 = extractelement <2 x double> %p0, i32 1
	%v2 = call double @_Z4rintd(double %s2_0)
	%r2 = insertelement <2 x double> %r1, double %v2, i32 1
	ret <2 x double> %r2
}
declare double @_Z5rootndi(double %p0, i32 %p1) nounwind
define <2 x double> @_Z5rootnu2v2du2v2i(<2 x double> %p0, <2 x i32> %p1) nounwind {
	%s1_0 = extractelement <2 x double> %p0, i32 0
	%s1_1 = extractelement <2 x i32> %p1, i32 0
	%v1 = call double @_Z5rootndi(double %s1_0, i32 %s1_1)
	%r1 = insertelement <2 x double> undef, double %v1, i32 0
	%s2_0 = extractelement <2 x double> %p0, i32 1
	%s2_1 = extractelement <2 x i32> %p1, i32 1
	%v2 = call double @_Z5rootndi(double %s2_0, i32 %s2_1)
	%r2 = insertelement <2 x double> %r1, double %v2, i32 1
	ret <2 x double> %r2
}
declare double @_Z5roundd(double %p0) nounwind
define <2 x double> @_Z5roundu2v2d(<2 x double> %p0) nounwind {
	%s1_0 = extractelement <2 x double> %p0, i32 0
	%v1 = call double @_Z5roundd(double %s1_0)
	%r1 = insertelement <2 x double> undef, double %v1, i32 0
	%s2_0 = extractelement <2 x double> %p0, i32 1
	%v2 = call double @_Z5roundd(double %s2_0)
	%r2 = insertelement <2 x double> %r1, double %v2, i32 1
	ret <2 x double> %r2
}
declare double @_Z5rsqrtd(double %p0) nounwind
define <2 x double> @_Z5rsqrtu2v2d(<2 x double> %p0) nounwind {
	%s1_0 = extractelement <2 x double> %p0, i32 0
	%v1 = call double @_Z5rsqrtd(double %s1_0)
	%r1 = insertelement <2 x double> undef, double %v1, i32 0
	%s2_0 = extractelement <2 x double> %p0, i32 1
	%v2 = call double @_Z5rsqrtd(double %s2_0)
	%r2 = insertelement <2 x double> %r1, double %v2, i32 1
	ret <2 x double> %r2
}
declare double @_Z6sincosdPd(double %p0, double* %p1) nounwind
define <2 x double> @_Z6sincosu2v2dPu2v2d(<2 x double> %p0, <2 x double>* %p1) nounwind {
	%s1_0 = extractelement <2 x double> %p0, i32 0
	%s1_1 = getelementptr <2 x double>* %p1, i32 0, i32 0
	%v1 = call double @_Z6sincosdPd(double %s1_0, double* %s1_1)
	%r1 = insertelement <2 x double> undef, double %v1, i32 0
	%s2_0 = extractelement <2 x double> %p0, i32 1
	%s2_1 = getelementptr <2 x double>* %p1, i32 0, i32 1
	%v2 = call double @_Z6sincosdPd(double %s2_0, double* %s2_1)
	%r2 = insertelement <2 x double> %r1, double %v2, i32 1
	ret <2 x double> %r2
}
declare double @_Z4sinhd(double %p0) nounwind
define <2 x double> @_Z4sinhu2v2d(<2 x double> %p0) nounwind {
	%s1_0 = extractelement <2 x double> %p0, i32 0
	%v1 = call double @_Z4sinhd(double %s1_0)
	%r1 = insertelement <2 x double> undef, double %v1, i32 0
	%s2_0 = extractelement <2 x double> %p0, i32 1
	%v2 = call double @_Z4sinhd(double %s2_0)
	%r2 = insertelement <2 x double> %r1, double %v2, i32 1
	ret <2 x double> %r2
}
declare double @_Z5sinpid(double %p0) nounwind
define <2 x double> @_Z5sinpiu2v2d(<2 x double> %p0) nounwind {
	%s1_0 = extractelement <2 x double> %p0, i32 0
	%v1 = call double @_Z5sinpid(double %s1_0)
	%r1 = insertelement <2 x double> undef, double %v1, i32 0
	%s2_0 = extractelement <2 x double> %p0, i32 1
	%v2 = call double @_Z5sinpid(double %s2_0)
	%r2 = insertelement <2 x double> %r1, double %v2, i32 1
	ret <2 x double> %r2
}
declare double @_Z3tand(double %p0) nounwind
define <2 x double> @_Z3tanu2v2d(<2 x double> %p0) nounwind {
	%s1_0 = extractelement <2 x double> %p0, i32 0
	%v1 = call double @_Z3tand(double %s1_0)
	%r1 = insertelement <2 x double> undef, double %v1, i32 0
	%s2_0 = extractelement <2 x double> %p0, i32 1
	%v2 = call double @_Z3tand(double %s2_0)
	%r2 = insertelement <2 x double> %r1, double %v2, i32 1
	ret <2 x double> %r2
}
declare double @_Z4tanhd(double %p0) nounwind
define <2 x double> @_Z4tanhu2v2d(<2 x double> %p0) nounwind {
	%s1_0 = extractelement <2 x double> %p0, i32 0
	%v1 = call double @_Z4tanhd(double %s1_0)
	%r1 = insertelement <2 x double> undef, double %v1, i32 0
	%s2_0 = extractelement <2 x double> %p0, i32 1
	%v2 = call double @_Z4tanhd(double %s2_0)
	%r2 = insertelement <2 x double> %r1, double %v2, i32 1
	ret <2 x double> %r2
}
declare double @_Z5tanpid(double %p0) nounwind
define <2 x double> @_Z5tanpiu2v2d(<2 x double> %p0) nounwind {
	%s1_0 = extractelement <2 x double> %p0, i32 0
	%v1 = call double @_Z5tanpid(double %s1_0)
	%r1 = insertelement <2 x double> undef, double %v1, i32 0
	%s2_0 = extractelement <2 x double> %p0, i32 1
	%v2 = call double @_Z5tanpid(double %s2_0)
	%r2 = insertelement <2 x double> %r1, double %v2, i32 1
	ret <2 x double> %r2
}
declare double @_Z6tgammad(double %p0) nounwind
define <2 x double> @_Z6tgammau2v2d(<2 x double> %p0) nounwind {
	%s1_0 = extractelement <2 x double> %p0, i32 0
	%v1 = call double @_Z6tgammad(double %s1_0)
	%r1 = insertelement <2 x double> undef, double %v1, i32 0
	%s2_0 = extractelement <2 x double> %p0, i32 1
	%v2 = call double @_Z6tgammad(double %s2_0)
	%r2 = insertelement <2 x double> %r1, double %v2, i32 1
	ret <2 x double> %r2
}
declare double @_Z5truncd(double %p0) nounwind
define <2 x double> @_Z5truncu2v2d(<2 x double> %p0) nounwind {
	%s1_0 = extractelement <2 x double> %p0, i32 0
	%v1 = call double @_Z5truncd(double %s1_0)
	%r1 = insertelement <2 x double> undef, double %v1, i32 0
	%s2_0 = extractelement <2 x double> %p0, i32 1
	%v2 = call double @_Z5truncd(double %s2_0)
	%r2 = insertelement <2 x double> %r1, double %v2, i32 1
	ret <2 x double> %r2
}
declare double @_Z8half_cosd(double %p0) nounwind
define <2 x double> @_Z8half_cosu2v2d(<2 x double> %p0) nounwind {
	%s1_0 = extractelement <2 x double> %p0, i32 0
	%v1 = call double @_Z8half_cosd(double %s1_0)
	%r1 = insertelement <2 x double> undef, double %v1, i32 0
	%s2_0 = extractelement <2 x double> %p0, i32 1
	%v2 = call double @_Z8half_cosd(double %s2_0)
	%r2 = insertelement <2 x double> %r1, double %v2, i32 1
	ret <2 x double> %r2
}
declare double @_Z11half_dividedd(double %p0, double %p1) nounwind
define <2 x double> @_Z11half_divideu2v2du2v2d(<2 x double> %p0, <2 x double> %p1) nounwind {
	%s1_0 = extractelement <2 x double> %p0, i32 0
	%s1_1 = extractelement <2 x double> %p1, i32 0
	%v1 = call double @_Z11half_dividedd(double %s1_0, double %s1_1)
	%r1 = insertelement <2 x double> undef, double %v1, i32 0
	%s2_0 = extractelement <2 x double> %p0, i32 1
	%s2_1 = extractelement <2 x double> %p1, i32 1
	%v2 = call double @_Z11half_dividedd(double %s2_0, double %s2_1)
	%r2 = insertelement <2 x double> %r1, double %v2, i32 1
	ret <2 x double> %r2
}
declare double @_Z8half_expd(double %p0) nounwind
define <2 x double> @_Z8half_expu2v2d(<2 x double> %p0) nounwind {
	%s1_0 = extractelement <2 x double> %p0, i32 0
	%v1 = call double @_Z8half_expd(double %s1_0)
	%r1 = insertelement <2 x double> undef, double %v1, i32 0
	%s2_0 = extractelement <2 x double> %p0, i32 1
	%v2 = call double @_Z8half_expd(double %s2_0)
	%r2 = insertelement <2 x double> %r1, double %v2, i32 1
	ret <2 x double> %r2
}
declare double @_Z9half_exp2d(double %p0) nounwind
define <2 x double> @_Z9half_exp2u2v2d(<2 x double> %p0) nounwind {
	%s1_0 = extractelement <2 x double> %p0, i32 0
	%v1 = call double @_Z9half_exp2d(double %s1_0)
	%r1 = insertelement <2 x double> undef, double %v1, i32 0
	%s2_0 = extractelement <2 x double> %p0, i32 1
	%v2 = call double @_Z9half_exp2d(double %s2_0)
	%r2 = insertelement <2 x double> %r1, double %v2, i32 1
	ret <2 x double> %r2
}
declare double @_Z10half_exp10d(double %p0) nounwind
define <2 x double> @_Z10half_exp10u2v2d(<2 x double> %p0) nounwind {
	%s1_0 = extractelement <2 x double> %p0, i32 0
	%v1 = call double @_Z10half_exp10d(double %s1_0)
	%r1 = insertelement <2 x double> undef, double %v1, i32 0
	%s2_0 = extractelement <2 x double> %p0, i32 1
	%v2 = call double @_Z10half_exp10d(double %s2_0)
	%r2 = insertelement <2 x double> %r1, double %v2, i32 1
	ret <2 x double> %r2
}
declare double @_Z8half_logd(double %p0) nounwind
define <2 x double> @_Z8half_logu2v2d(<2 x double> %p0) nounwind {
	%s1_0 = extractelement <2 x double> %p0, i32 0
	%v1 = call double @_Z8half_logd(double %s1_0)
	%r1 = insertelement <2 x double> undef, double %v1, i32 0
	%s2_0 = extractelement <2 x double> %p0, i32 1
	%v2 = call double @_Z8half_logd(double %s2_0)
	%r2 = insertelement <2 x double> %r1, double %v2, i32 1
	ret <2 x double> %r2
}
declare double @_Z9half_log2d(double %p0) nounwind
define <2 x double> @_Z9half_log2u2v2d(<2 x double> %p0) nounwind {
	%s1_0 = extractelement <2 x double> %p0, i32 0
	%v1 = call double @_Z9half_log2d(double %s1_0)
	%r1 = insertelement <2 x double> undef, double %v1, i32 0
	%s2_0 = extractelement <2 x double> %p0, i32 1
	%v2 = call double @_Z9half_log2d(double %s2_0)
	%r2 = insertelement <2 x double> %r1, double %v2, i32 1
	ret <2 x double> %r2
}
declare double @_Z10half_log10d(double %p0) nounwind
define <2 x double> @_Z10half_log10u2v2d(<2 x double> %p0) nounwind {
	%s1_0 = extractelement <2 x double> %p0, i32 0
	%v1 = call double @_Z10half_log10d(double %s1_0)
	%r1 = insertelement <2 x double> undef, double %v1, i32 0
	%s2_0 = extractelement <2 x double> %p0, i32 1
	%v2 = call double @_Z10half_log10d(double %s2_0)
	%r2 = insertelement <2 x double> %r1, double %v2, i32 1
	ret <2 x double> %r2
}
declare double @_Z9half_powrdd(double %p0, double %p1) nounwind
define <2 x double> @_Z9half_powru2v2du2v2d(<2 x double> %p0, <2 x double> %p1) nounwind {
	%s1_0 = extractelement <2 x double> %p0, i32 0
	%s1_1 = extractelement <2 x double> %p1, i32 0
	%v1 = call double @_Z9half_powrdd(double %s1_0, double %s1_1)
	%r1 = insertelement <2 x double> undef, double %v1, i32 0
	%s2_0 = extractelement <2 x double> %p0, i32 1
	%s2_1 = extractelement <2 x double> %p1, i32 1
	%v2 = call double @_Z9half_powrdd(double %s2_0, double %s2_1)
	%r2 = insertelement <2 x double> %r1, double %v2, i32 1
	ret <2 x double> %r2
}
declare double @_Z10half_recipd(double %p0) nounwind
define <2 x double> @_Z10half_recipu2v2d(<2 x double> %p0) nounwind {
	%s1_0 = extractelement <2 x double> %p0, i32 0
	%v1 = call double @_Z10half_recipd(double %s1_0)
	%r1 = insertelement <2 x double> undef, double %v1, i32 0
	%s2_0 = extractelement <2 x double> %p0, i32 1
	%v2 = call double @_Z10half_recipd(double %s2_0)
	%r2 = insertelement <2 x double> %r1, double %v2, i32 1
	ret <2 x double> %r2
}
declare double @_Z10half_rsqrtd(double %p0) nounwind
define <2 x double> @_Z10half_rsqrtu2v2d(<2 x double> %p0) nounwind {
	%s1_0 = extractelement <2 x double> %p0, i32 0
	%v1 = call double @_Z10half_rsqrtd(double %s1_0)
	%r1 = insertelement <2 x double> undef, double %v1, i32 0
	%s2_0 = extractelement <2 x double> %p0, i32 1
	%v2 = call double @_Z10half_rsqrtd(double %s2_0)
	%r2 = insertelement <2 x double> %r1, double %v2, i32 1
	ret <2 x double> %r2
}
declare double @_Z8half_sind(double %p0) nounwind
define <2 x double> @_Z8half_sinu2v2d(<2 x double> %p0) nounwind {
	%s1_0 = extractelement <2 x double> %p0, i32 0
	%v1 = call double @_Z8half_sind(double %s1_0)
	%r1 = insertelement <2 x double> undef, double %v1, i32 0
	%s2_0 = extractelement <2 x double> %p0, i32 1
	%v2 = call double @_Z8half_sind(double %s2_0)
	%r2 = insertelement <2 x double> %r1, double %v2, i32 1
	ret <2 x double> %r2
}
declare double @_Z9half_sqrtd(double %p0) nounwind
define <2 x double> @_Z9half_sqrtu2v2d(<2 x double> %p0) nounwind {
	%s1_0 = extractelement <2 x double> %p0, i32 0
	%v1 = call double @_Z9half_sqrtd(double %s1_0)
	%r1 = insertelement <2 x double> undef, double %v1, i32 0
	%s2_0 = extractelement <2 x double> %p0, i32 1
	%v2 = call double @_Z9half_sqrtd(double %s2_0)
	%r2 = insertelement <2 x double> %r1, double %v2, i32 1
	ret <2 x double> %r2
}
declare double @_Z8half_tand(double %p0) nounwind
define <2 x double> @_Z8half_tanu2v2d(<2 x double> %p0) nounwind {
	%s1_0 = extractelement <2 x double> %p0, i32 0
	%v1 = call double @_Z8half_tand(double %s1_0)
	%r1 = insertelement <2 x double> undef, double %v1, i32 0
	%s2_0 = extractelement <2 x double> %p0, i32 1
	%v2 = call double @_Z8half_tand(double %s2_0)
	%r2 = insertelement <2 x double> %r1, double %v2, i32 1
	ret <2 x double> %r2
}
declare double @_Z11native_exp2d(double %p0) nounwind
define <2 x double> @_Z11native_exp2u2v2d(<2 x double> %p0) nounwind {
	%s1_0 = extractelement <2 x double> %p0, i32 0
	%v1 = call double @_Z11native_exp2d(double %s1_0)
	%r1 = insertelement <2 x double> undef, double %v1, i32 0
	%s2_0 = extractelement <2 x double> %p0, i32 1
	%v2 = call double @_Z11native_exp2d(double %s2_0)
	%r2 = insertelement <2 x double> %r1, double %v2, i32 1
	ret <2 x double> %r2
}
declare double @_Z12native_exp10d(double %p0) nounwind
define <2 x double> @_Z12native_exp10u2v2d(<2 x double> %p0) nounwind {
	%s1_0 = extractelement <2 x double> %p0, i32 0
	%v1 = call double @_Z12native_exp10d(double %s1_0)
	%r1 = insertelement <2 x double> undef, double %v1, i32 0
	%s2_0 = extractelement <2 x double> %p0, i32 1
	%v2 = call double @_Z12native_exp10d(double %s2_0)
	%r2 = insertelement <2 x double> %r1, double %v2, i32 1
	ret <2 x double> %r2
}
declare double @_Z11native_log2d(double %p0) nounwind
define <2 x double> @_Z11native_log2u2v2d(<2 x double> %p0) nounwind {
	%s1_0 = extractelement <2 x double> %p0, i32 0
	%v1 = call double @_Z11native_log2d(double %s1_0)
	%r1 = insertelement <2 x double> undef, double %v1, i32 0
	%s2_0 = extractelement <2 x double> %p0, i32 1
	%v2 = call double @_Z11native_log2d(double %s2_0)
	%r2 = insertelement <2 x double> %r1, double %v2, i32 1
	ret <2 x double> %r2
}
declare double @_Z12native_log10d(double %p0) nounwind
define <2 x double> @_Z12native_log10u2v2d(<2 x double> %p0) nounwind {
	%s1_0 = extractelement <2 x double> %p0, i32 0
	%v1 = call double @_Z12native_log10d(double %s1_0)
	%r1 = insertelement <2 x double> undef, double %v1, i32 0
	%s2_0 = extractelement <2 x double> %p0, i32 1
	%v2 = call double @_Z12native_log10d(double %s2_0)
	%r2 = insertelement <2 x double> %r1, double %v2, i32 1
	ret <2 x double> %r2
}
declare double @_Z12native_recipd(double %p0) nounwind
define <2 x double> @_Z12native_recipu2v2d(<2 x double> %p0) nounwind {
	%s1_0 = extractelement <2 x double> %p0, i32 0
	%v1 = call double @_Z12native_recipd(double %s1_0)
	%r1 = insertelement <2 x double> undef, double %v1, i32 0
	%s2_0 = extractelement <2 x double> %p0, i32 1
	%v2 = call double @_Z12native_recipd(double %s2_0)
	%r2 = insertelement <2 x double> %r1, double %v2, i32 1
	ret <2 x double> %r2
}
declare double @_Z12native_rsqrtd(double %p0) nounwind
define <2 x double> @_Z12native_rsqrtu2v2d(<2 x double> %p0) nounwind {
	%s1_0 = extractelement <2 x double> %p0, i32 0
	%v1 = call double @_Z12native_rsqrtd(double %s1_0)
	%r1 = insertelement <2 x double> undef, double %v1, i32 0
	%s2_0 = extractelement <2 x double> %p0, i32 1
	%v2 = call double @_Z12native_rsqrtd(double %s2_0)
	%r2 = insertelement <2 x double> %r1, double %v2, i32 1
	ret <2 x double> %r2
}
declare double @_Z11native_sqrtd(double %p0) nounwind
define <2 x double> @_Z11native_sqrtu2v2d(<2 x double> %p0) nounwind {
	%s1_0 = extractelement <2 x double> %p0, i32 0
	%v1 = call double @_Z11native_sqrtd(double %s1_0)
	%r1 = insertelement <2 x double> undef, double %v1, i32 0
	%s2_0 = extractelement <2 x double> %p0, i32 1
	%v2 = call double @_Z11native_sqrtd(double %s2_0)
	%r2 = insertelement <2 x double> %r1, double %v2, i32 1
	ret <2 x double> %r2
}
declare double @_Z10native_sind(double %p0) nounwind
define <2 x double> @_Z10native_sinu2v2d(<2 x double> %p0) nounwind {
	%s1_0 = extractelement <2 x double> %p0, i32 0
	%v1 = call double @_Z10native_sind(double %s1_0)
	%r1 = insertelement <2 x double> undef, double %v1, i32 0
	%s2_0 = extractelement <2 x double> %p0, i32 1
	%v2 = call double @_Z10native_sind(double %s2_0)
	%r2 = insertelement <2 x double> %r1, double %v2, i32 1
	ret <2 x double> %r2
}
declare double @_Z10native_cosd(double %p0) nounwind
define <2 x double> @_Z10native_cosu2v2d(<2 x double> %p0) nounwind {
	%s1_0 = extractelement <2 x double> %p0, i32 0
	%v1 = call double @_Z10native_cosd(double %s1_0)
	%r1 = insertelement <2 x double> undef, double %v1, i32 0
	%s2_0 = extractelement <2 x double> %p0, i32 1
	%v2 = call double @_Z10native_cosd(double %s2_0)
	%r2 = insertelement <2 x double> %r1, double %v2, i32 1
	ret <2 x double> %r2
}
declare double @_Z10native_expd(double %p0) nounwind
define <2 x double> @_Z10native_expu2v2d(<2 x double> %p0) nounwind {
	%s1_0 = extractelement <2 x double> %p0, i32 0
	%v1 = call double @_Z10native_expd(double %s1_0)
	%r1 = insertelement <2 x double> undef, double %v1, i32 0
	%s2_0 = extractelement <2 x double> %p0, i32 1
	%v2 = call double @_Z10native_expd(double %s2_0)
	%r2 = insertelement <2 x double> %r1, double %v2, i32 1
	ret <2 x double> %r2
}
declare double @_Z10native_logd(double %p0) nounwind
define <2 x double> @_Z10native_logu2v2d(<2 x double> %p0) nounwind {
	%s1_0 = extractelement <2 x double> %p0, i32 0
	%v1 = call double @_Z10native_logd(double %s1_0)
	%r1 = insertelement <2 x double> undef, double %v1, i32 0
	%s2_0 = extractelement <2 x double> %p0, i32 1
	%v2 = call double @_Z10native_logd(double %s2_0)
	%r2 = insertelement <2 x double> %r1, double %v2, i32 1
	ret <2 x double> %r2
}
declare double @_Z10native_tand(double %p0) nounwind
define <2 x double> @_Z10native_tanu2v2d(<2 x double> %p0) nounwind {
	%s1_0 = extractelement <2 x double> %p0, i32 0
	%v1 = call double @_Z10native_tand(double %s1_0)
	%r1 = insertelement <2 x double> undef, double %v1, i32 0
	%s2_0 = extractelement <2 x double> %p0, i32 1
	%v2 = call double @_Z10native_tand(double %s2_0)
	%r2 = insertelement <2 x double> %r1, double %v2, i32 1
	ret <2 x double> %r2
}
declare double @_Z13native_dividedd(double %p0, double %p1) nounwind
define <2 x double> @_Z13native_divideu2v2du2v2d(<2 x double> %p0, <2 x double> %p1) nounwind {
	%s1_0 = extractelement <2 x double> %p0, i32 0
	%s1_1 = extractelement <2 x double> %p1, i32 0
	%v1 = call double @_Z13native_dividedd(double %s1_0, double %s1_1)
	%r1 = insertelement <2 x double> undef, double %v1, i32 0
	%s2_0 = extractelement <2 x double> %p0, i32 1
	%s2_1 = extractelement <2 x double> %p1, i32 1
	%v2 = call double @_Z13native_dividedd(double %s2_0, double %s2_1)
	%r2 = insertelement <2 x double> %r1, double %v2, i32 1
	ret <2 x double> %r2
}
declare double @_Z11native_powrdd(double %p0, double %p1) nounwind
define <2 x double> @_Z11native_powru2v2du2v2d(<2 x double> %p0, <2 x double> %p1) nounwind {
	%s1_0 = extractelement <2 x double> %p0, i32 0
	%s1_1 = extractelement <2 x double> %p1, i32 0
	%v1 = call double @_Z11native_powrdd(double %s1_0, double %s1_1)
	%r1 = insertelement <2 x double> undef, double %v1, i32 0
	%s2_0 = extractelement <2 x double> %p0, i32 1
	%s2_1 = extractelement <2 x double> %p1, i32 1
	%v2 = call double @_Z11native_powrdd(double %s2_0, double %s2_1)
	%r2 = insertelement <2 x double> %r1, double %v2, i32 1
	ret <2 x double> %r2
}
declare double @_Z12native_ldexpdi(double %p0, i32 %p1) nounwind
define <2 x double> @_Z12native_ldexpu2v2du2v2i(<2 x double> %p0, <2 x i32> %p1) nounwind {
	%s1_0 = extractelement <2 x double> %p0, i32 0
	%s1_1 = extractelement <2 x i32> %p1, i32 0
	%v1 = call double @_Z12native_ldexpdi(double %s1_0, i32 %s1_1)
	%r1 = insertelement <2 x double> undef, double %v1, i32 0
	%s2_0 = extractelement <2 x double> %p0, i32 1
	%s2_1 = extractelement <2 x i32> %p1, i32 1
	%v2 = call double @_Z12native_ldexpdi(double %s2_0, i32 %s2_1)
	%r2 = insertelement <2 x double> %r1, double %v2, i32 1
	ret <2 x double> %r2
}
define <4 x float> @_Z4acosu2v3f(<4 x float> %p0) nounwind {
	%s1_0 = extractelement <4 x float> %p0, i32 0
	%v1 = call float @_Z4acosf(float %s1_0)
	%r1 = insertelement <4 x float> undef, float %v1, i32 0
	%s2_0 = extractelement <4 x float> %p0, i32 1
	%v2 = call float @_Z4acosf(float %s2_0)
	%r2 = insertelement <4 x float> %r1, float %v2, i32 1
	%s3_0 = extractelement <4 x float> %p0, i32 2
	%v3 = call float @_Z4acosf(float %s3_0)
	%r3 = insertelement <4 x float> %r2, float %v3, i32 2
	ret <4 x float> %r3
}
define <4 x float> @_Z5acoshu2v3f(<4 x float> %p0) nounwind {
	%s1_0 = extractelement <4 x float> %p0, i32 0
	%v1 = call float @_Z5acoshf(float %s1_0)
	%r1 = insertelement <4 x float> undef, float %v1, i32 0
	%s2_0 = extractelement <4 x float> %p0, i32 1
	%v2 = call float @_Z5acoshf(float %s2_0)
	%r2 = insertelement <4 x float> %r1, float %v2, i32 1
	%s3_0 = extractelement <4 x float> %p0, i32 2
	%v3 = call float @_Z5acoshf(float %s3_0)
	%r3 = insertelement <4 x float> %r2, float %v3, i32 2
	ret <4 x float> %r3
}
define <4 x float> @_Z6acospiu2v3f(<4 x float> %p0) nounwind {
	%s1_0 = extractelement <4 x float> %p0, i32 0
	%v1 = call float @_Z6acospif(float %s1_0)
	%r1 = insertelement <4 x float> undef, float %v1, i32 0
	%s2_0 = extractelement <4 x float> %p0, i32 1
	%v2 = call float @_Z6acospif(float %s2_0)
	%r2 = insertelement <4 x float> %r1, float %v2, i32 1
	%s3_0 = extractelement <4 x float> %p0, i32 2
	%v3 = call float @_Z6acospif(float %s3_0)
	%r3 = insertelement <4 x float> %r2, float %v3, i32 2
	ret <4 x float> %r3
}
define <4 x float> @_Z4asinu2v3f(<4 x float> %p0) nounwind {
	%s1_0 = extractelement <4 x float> %p0, i32 0
	%v1 = call float @_Z4asinf(float %s1_0)
	%r1 = insertelement <4 x float> undef, float %v1, i32 0
	%s2_0 = extractelement <4 x float> %p0, i32 1
	%v2 = call float @_Z4asinf(float %s2_0)
	%r2 = insertelement <4 x float> %r1, float %v2, i32 1
	%s3_0 = extractelement <4 x float> %p0, i32 2
	%v3 = call float @_Z4asinf(float %s3_0)
	%r3 = insertelement <4 x float> %r2, float %v3, i32 2
	ret <4 x float> %r3
}
define <4 x float> @_Z5asinhu2v3f(<4 x float> %p0) nounwind {
	%s1_0 = extractelement <4 x float> %p0, i32 0
	%v1 = call float @_Z5asinhf(float %s1_0)
	%r1 = insertelement <4 x float> undef, float %v1, i32 0
	%s2_0 = extractelement <4 x float> %p0, i32 1
	%v2 = call float @_Z5asinhf(float %s2_0)
	%r2 = insertelement <4 x float> %r1, float %v2, i32 1
	%s3_0 = extractelement <4 x float> %p0, i32 2
	%v3 = call float @_Z5asinhf(float %s3_0)
	%r3 = insertelement <4 x float> %r2, float %v3, i32 2
	ret <4 x float> %r3
}
define <4 x float> @_Z6asinpiu2v3f(<4 x float> %p0) nounwind {
	%s1_0 = extractelement <4 x float> %p0, i32 0
	%v1 = call float @_Z6asinpif(float %s1_0)
	%r1 = insertelement <4 x float> undef, float %v1, i32 0
	%s2_0 = extractelement <4 x float> %p0, i32 1
	%v2 = call float @_Z6asinpif(float %s2_0)
	%r2 = insertelement <4 x float> %r1, float %v2, i32 1
	%s3_0 = extractelement <4 x float> %p0, i32 2
	%v3 = call float @_Z6asinpif(float %s3_0)
	%r3 = insertelement <4 x float> %r2, float %v3, i32 2
	ret <4 x float> %r3
}
define <4 x float> @_Z4atanu2v3f(<4 x float> %p0) nounwind {
	%s1_0 = extractelement <4 x float> %p0, i32 0
	%v1 = call float @_Z4atanf(float %s1_0)
	%r1 = insertelement <4 x float> undef, float %v1, i32 0
	%s2_0 = extractelement <4 x float> %p0, i32 1
	%v2 = call float @_Z4atanf(float %s2_0)
	%r2 = insertelement <4 x float> %r1, float %v2, i32 1
	%s3_0 = extractelement <4 x float> %p0, i32 2
	%v3 = call float @_Z4atanf(float %s3_0)
	%r3 = insertelement <4 x float> %r2, float %v3, i32 2
	ret <4 x float> %r3
}
define <4 x float> @_Z5atan2u2v3fu2v3f(<4 x float> %p0, <4 x float> %p1) nounwind {
	%s1_0 = extractelement <4 x float> %p0, i32 0
	%s1_1 = extractelement <4 x float> %p1, i32 0
	%v1 = call float @_Z5atan2ff(float %s1_0, float %s1_1)
	%r1 = insertelement <4 x float> undef, float %v1, i32 0
	%s2_0 = extractelement <4 x float> %p0, i32 1
	%s2_1 = extractelement <4 x float> %p1, i32 1
	%v2 = call float @_Z5atan2ff(float %s2_0, float %s2_1)
	%r2 = insertelement <4 x float> %r1, float %v2, i32 1
	%s3_0 = extractelement <4 x float> %p0, i32 2
	%s3_1 = extractelement <4 x float> %p1, i32 2
	%v3 = call float @_Z5atan2ff(float %s3_0, float %s3_1)
	%r3 = insertelement <4 x float> %r2, float %v3, i32 2
	ret <4 x float> %r3
}
define <4 x float> @_Z5atanhu2v3f(<4 x float> %p0) nounwind {
	%s1_0 = extractelement <4 x float> %p0, i32 0
	%v1 = call float @_Z5atanhf(float %s1_0)
	%r1 = insertelement <4 x float> undef, float %v1, i32 0
	%s2_0 = extractelement <4 x float> %p0, i32 1
	%v2 = call float @_Z5atanhf(float %s2_0)
	%r2 = insertelement <4 x float> %r1, float %v2, i32 1
	%s3_0 = extractelement <4 x float> %p0, i32 2
	%v3 = call float @_Z5atanhf(float %s3_0)
	%r3 = insertelement <4 x float> %r2, float %v3, i32 2
	ret <4 x float> %r3
}
define <4 x float> @_Z6atanpiu2v3f(<4 x float> %p0) nounwind {
	%s1_0 = extractelement <4 x float> %p0, i32 0
	%v1 = call float @_Z6atanpif(float %s1_0)
	%r1 = insertelement <4 x float> undef, float %v1, i32 0
	%s2_0 = extractelement <4 x float> %p0, i32 1
	%v2 = call float @_Z6atanpif(float %s2_0)
	%r2 = insertelement <4 x float> %r1, float %v2, i32 1
	%s3_0 = extractelement <4 x float> %p0, i32 2
	%v3 = call float @_Z6atanpif(float %s3_0)
	%r3 = insertelement <4 x float> %r2, float %v3, i32 2
	ret <4 x float> %r3
}
define <4 x float> @_Z7atan2piu2v3fu2v3f(<4 x float> %p0, <4 x float> %p1) nounwind {
	%s1_0 = extractelement <4 x float> %p0, i32 0
	%s1_1 = extractelement <4 x float> %p1, i32 0
	%v1 = call float @_Z7atan2piff(float %s1_0, float %s1_1)
	%r1 = insertelement <4 x float> undef, float %v1, i32 0
	%s2_0 = extractelement <4 x float> %p0, i32 1
	%s2_1 = extractelement <4 x float> %p1, i32 1
	%v2 = call float @_Z7atan2piff(float %s2_0, float %s2_1)
	%r2 = insertelement <4 x float> %r1, float %v2, i32 1
	%s3_0 = extractelement <4 x float> %p0, i32 2
	%s3_1 = extractelement <4 x float> %p1, i32 2
	%v3 = call float @_Z7atan2piff(float %s3_0, float %s3_1)
	%r3 = insertelement <4 x float> %r2, float %v3, i32 2
	ret <4 x float> %r3
}
define <4 x float> @_Z4cbrtu2v3f(<4 x float> %p0) nounwind {
	%s1_0 = extractelement <4 x float> %p0, i32 0
	%v1 = call float @_Z4cbrtf(float %s1_0)
	%r1 = insertelement <4 x float> undef, float %v1, i32 0
	%s2_0 = extractelement <4 x float> %p0, i32 1
	%v2 = call float @_Z4cbrtf(float %s2_0)
	%r2 = insertelement <4 x float> %r1, float %v2, i32 1
	%s3_0 = extractelement <4 x float> %p0, i32 2
	%v3 = call float @_Z4cbrtf(float %s3_0)
	%r3 = insertelement <4 x float> %r2, float %v3, i32 2
	ret <4 x float> %r3
}
define <4 x float> @_Z4ceilu2v3f(<4 x float> %p0) nounwind {
	%s1_0 = extractelement <4 x float> %p0, i32 0
	%v1 = call float @_Z4ceilf(float %s1_0)
	%r1 = insertelement <4 x float> undef, float %v1, i32 0
	%s2_0 = extractelement <4 x float> %p0, i32 1
	%v2 = call float @_Z4ceilf(float %s2_0)
	%r2 = insertelement <4 x float> %r1, float %v2, i32 1
	%s3_0 = extractelement <4 x float> %p0, i32 2
	%v3 = call float @_Z4ceilf(float %s3_0)
	%r3 = insertelement <4 x float> %r2, float %v3, i32 2
	ret <4 x float> %r3
}
define <4 x float> @_Z8copysignu2v3fu2v3f(<4 x float> %p0, <4 x float> %p1) nounwind {
	%s1_0 = extractelement <4 x float> %p0, i32 0
	%s1_1 = extractelement <4 x float> %p1, i32 0
	%v1 = call float @_Z8copysignff(float %s1_0, float %s1_1)
	%r1 = insertelement <4 x float> undef, float %v1, i32 0
	%s2_0 = extractelement <4 x float> %p0, i32 1
	%s2_1 = extractelement <4 x float> %p1, i32 1
	%v2 = call float @_Z8copysignff(float %s2_0, float %s2_1)
	%r2 = insertelement <4 x float> %r1, float %v2, i32 1
	%s3_0 = extractelement <4 x float> %p0, i32 2
	%s3_1 = extractelement <4 x float> %p1, i32 2
	%v3 = call float @_Z8copysignff(float %s3_0, float %s3_1)
	%r3 = insertelement <4 x float> %r2, float %v3, i32 2
	ret <4 x float> %r3
}
define <4 x float> @_Z4coshu2v3f(<4 x float> %p0) nounwind {
	%s1_0 = extractelement <4 x float> %p0, i32 0
	%v1 = call float @_Z4coshf(float %s1_0)
	%r1 = insertelement <4 x float> undef, float %v1, i32 0
	%s2_0 = extractelement <4 x float> %p0, i32 1
	%v2 = call float @_Z4coshf(float %s2_0)
	%r2 = insertelement <4 x float> %r1, float %v2, i32 1
	%s3_0 = extractelement <4 x float> %p0, i32 2
	%v3 = call float @_Z4coshf(float %s3_0)
	%r3 = insertelement <4 x float> %r2, float %v3, i32 2
	ret <4 x float> %r3
}
define <4 x float> @_Z5cospiu2v3f(<4 x float> %p0) nounwind {
	%s1_0 = extractelement <4 x float> %p0, i32 0
	%v1 = call float @_Z5cospif(float %s1_0)
	%r1 = insertelement <4 x float> undef, float %v1, i32 0
	%s2_0 = extractelement <4 x float> %p0, i32 1
	%v2 = call float @_Z5cospif(float %s2_0)
	%r2 = insertelement <4 x float> %r1, float %v2, i32 1
	%s3_0 = extractelement <4 x float> %p0, i32 2
	%v3 = call float @_Z5cospif(float %s3_0)
	%r3 = insertelement <4 x float> %r2, float %v3, i32 2
	ret <4 x float> %r3
}
define <4 x float> @_Z4erfcu2v3f(<4 x float> %p0) nounwind {
	%s1_0 = extractelement <4 x float> %p0, i32 0
	%v1 = call float @_Z4erfcf(float %s1_0)
	%r1 = insertelement <4 x float> undef, float %v1, i32 0
	%s2_0 = extractelement <4 x float> %p0, i32 1
	%v2 = call float @_Z4erfcf(float %s2_0)
	%r2 = insertelement <4 x float> %r1, float %v2, i32 1
	%s3_0 = extractelement <4 x float> %p0, i32 2
	%v3 = call float @_Z4erfcf(float %s3_0)
	%r3 = insertelement <4 x float> %r2, float %v3, i32 2
	ret <4 x float> %r3
}
define <4 x float> @_Z3erfu2v3f(<4 x float> %p0) nounwind {
	%s1_0 = extractelement <4 x float> %p0, i32 0
	%v1 = call float @_Z3erff(float %s1_0)
	%r1 = insertelement <4 x float> undef, float %v1, i32 0
	%s2_0 = extractelement <4 x float> %p0, i32 1
	%v2 = call float @_Z3erff(float %s2_0)
	%r2 = insertelement <4 x float> %r1, float %v2, i32 1
	%s3_0 = extractelement <4 x float> %p0, i32 2
	%v3 = call float @_Z3erff(float %s3_0)
	%r3 = insertelement <4 x float> %r2, float %v3, i32 2
	ret <4 x float> %r3
}
define <4 x float> @_Z4exp2u2v3f(<4 x float> %p0) nounwind {
	%s1_0 = extractelement <4 x float> %p0, i32 0
	%v1 = call float @_Z4exp2f(float %s1_0)
	%r1 = insertelement <4 x float> undef, float %v1, i32 0
	%s2_0 = extractelement <4 x float> %p0, i32 1
	%v2 = call float @_Z4exp2f(float %s2_0)
	%r2 = insertelement <4 x float> %r1, float %v2, i32 1
	%s3_0 = extractelement <4 x float> %p0, i32 2
	%v3 = call float @_Z4exp2f(float %s3_0)
	%r3 = insertelement <4 x float> %r2, float %v3, i32 2
	ret <4 x float> %r3
}
define <4 x float> @_Z5exp10u2v3f(<4 x float> %p0) nounwind {
	%s1_0 = extractelement <4 x float> %p0, i32 0
	%v1 = call float @_Z5exp10f(float %s1_0)
	%r1 = insertelement <4 x float> undef, float %v1, i32 0
	%s2_0 = extractelement <4 x float> %p0, i32 1
	%v2 = call float @_Z5exp10f(float %s2_0)
	%r2 = insertelement <4 x float> %r1, float %v2, i32 1
	%s3_0 = extractelement <4 x float> %p0, i32 2
	%v3 = call float @_Z5exp10f(float %s3_0)
	%r3 = insertelement <4 x float> %r2, float %v3, i32 2
	ret <4 x float> %r3
}
define <4 x float> @_Z5expm1u2v3f(<4 x float> %p0) nounwind {
	%s1_0 = extractelement <4 x float> %p0, i32 0
	%v1 = call float @_Z5expm1f(float %s1_0)
	%r1 = insertelement <4 x float> undef, float %v1, i32 0
	%s2_0 = extractelement <4 x float> %p0, i32 1
	%v2 = call float @_Z5expm1f(float %s2_0)
	%r2 = insertelement <4 x float> %r1, float %v2, i32 1
	%s3_0 = extractelement <4 x float> %p0, i32 2
	%v3 = call float @_Z5expm1f(float %s3_0)
	%r3 = insertelement <4 x float> %r2, float %v3, i32 2
	ret <4 x float> %r3
}
define <4 x float> @_Z4fdimu2v3fu2v3f(<4 x float> %p0, <4 x float> %p1) nounwind {
	%s1_0 = extractelement <4 x float> %p0, i32 0
	%s1_1 = extractelement <4 x float> %p1, i32 0
	%v1 = call float @_Z4fdimff(float %s1_0, float %s1_1)
	%r1 = insertelement <4 x float> undef, float %v1, i32 0
	%s2_0 = extractelement <4 x float> %p0, i32 1
	%s2_1 = extractelement <4 x float> %p1, i32 1
	%v2 = call float @_Z4fdimff(float %s2_0, float %s2_1)
	%r2 = insertelement <4 x float> %r1, float %v2, i32 1
	%s3_0 = extractelement <4 x float> %p0, i32 2
	%s3_1 = extractelement <4 x float> %p1, i32 2
	%v3 = call float @_Z4fdimff(float %s3_0, float %s3_1)
	%r3 = insertelement <4 x float> %r2, float %v3, i32 2
	ret <4 x float> %r3
}
define <4 x float> @_Z4fmaxu2v3fu2v3f(<4 x float> %p0, <4 x float> %p1) nounwind {
	%s1_0 = extractelement <4 x float> %p0, i32 0
	%s1_1 = extractelement <4 x float> %p1, i32 0
	%v1 = call float @_Z4fmaxff(float %s1_0, float %s1_1)
	%r1 = insertelement <4 x float> undef, float %v1, i32 0
	%s2_0 = extractelement <4 x float> %p0, i32 1
	%s2_1 = extractelement <4 x float> %p1, i32 1
	%v2 = call float @_Z4fmaxff(float %s2_0, float %s2_1)
	%r2 = insertelement <4 x float> %r1, float %v2, i32 1
	%s3_0 = extractelement <4 x float> %p0, i32 2
	%s3_1 = extractelement <4 x float> %p1, i32 2
	%v3 = call float @_Z4fmaxff(float %s3_0, float %s3_1)
	%r3 = insertelement <4 x float> %r2, float %v3, i32 2
	ret <4 x float> %r3
}
define <4 x float> @_Z4fminu2v3fu2v3f(<4 x float> %p0, <4 x float> %p1) nounwind {
	%s1_0 = extractelement <4 x float> %p0, i32 0
	%s1_1 = extractelement <4 x float> %p1, i32 0
	%v1 = call float @_Z4fminff(float %s1_0, float %s1_1)
	%r1 = insertelement <4 x float> undef, float %v1, i32 0
	%s2_0 = extractelement <4 x float> %p0, i32 1
	%s2_1 = extractelement <4 x float> %p1, i32 1
	%v2 = call float @_Z4fminff(float %s2_0, float %s2_1)
	%r2 = insertelement <4 x float> %r1, float %v2, i32 1
	%s3_0 = extractelement <4 x float> %p0, i32 2
	%s3_1 = extractelement <4 x float> %p1, i32 2
	%v3 = call float @_Z4fminff(float %s3_0, float %s3_1)
	%r3 = insertelement <4 x float> %r2, float %v3, i32 2
	ret <4 x float> %r3
}
define <4 x float> @_Z4fmodu2v3fu2v3f(<4 x float> %p0, <4 x float> %p1) nounwind {
	%s1_0 = extractelement <4 x float> %p0, i32 0
	%s1_1 = extractelement <4 x float> %p1, i32 0
	%v1 = call float @_Z4fmodff(float %s1_0, float %s1_1)
	%r1 = insertelement <4 x float> undef, float %v1, i32 0
	%s2_0 = extractelement <4 x float> %p0, i32 1
	%s2_1 = extractelement <4 x float> %p1, i32 1
	%v2 = call float @_Z4fmodff(float %s2_0, float %s2_1)
	%r2 = insertelement <4 x float> %r1, float %v2, i32 1
	%s3_0 = extractelement <4 x float> %p0, i32 2
	%s3_1 = extractelement <4 x float> %p1, i32 2
	%v3 = call float @_Z4fmodff(float %s3_0, float %s3_1)
	%r3 = insertelement <4 x float> %r2, float %v3, i32 2
	ret <4 x float> %r3
}
define <4 x float> @_Z5fractu2v3fPu2v3f(<4 x float> %p0, <4 x float>* %p1) nounwind {
	%s1_0 = extractelement <4 x float> %p0, i32 0
	%s1_1 = getelementptr <4 x float>* %p1, i32 0, i32 0
	%v1 = call float @_Z5fractfPf(float %s1_0, float* %s1_1)
	%r1 = insertelement <4 x float> undef, float %v1, i32 0
	%s2_0 = extractelement <4 x float> %p0, i32 1
	%s2_1 = getelementptr <4 x float>* %p1, i32 0, i32 1
	%v2 = call float @_Z5fractfPf(float %s2_0, float* %s2_1)
	%r2 = insertelement <4 x float> %r1, float %v2, i32 1
	%s3_0 = extractelement <4 x float> %p0, i32 2
	%s3_1 = getelementptr <4 x float>* %p1, i32 0, i32 2
	%v3 = call float @_Z5fractfPf(float %s3_0, float* %s3_1)
	%r3 = insertelement <4 x float> %r2, float %v3, i32 2
	ret <4 x float> %r3
}
define <4 x float> @_Z5frexpu2v3fPu2v3i(<4 x float> %p0, <4 x i32>* %p1) nounwind {
	%s1_0 = extractelement <4 x float> %p0, i32 0
	%s1_1 = getelementptr <4 x i32>* %p1, i32 0, i32 0
	%v1 = call float @_Z5frexpfPi(float %s1_0, i32* %s1_1)
	%r1 = insertelement <4 x float> undef, float %v1, i32 0
	%s2_0 = extractelement <4 x float> %p0, i32 1
	%s2_1 = getelementptr <4 x i32>* %p1, i32 0, i32 1
	%v2 = call float @_Z5frexpfPi(float %s2_0, i32* %s2_1)
	%r2 = insertelement <4 x float> %r1, float %v2, i32 1
	%s3_0 = extractelement <4 x float> %p0, i32 2
	%s3_1 = getelementptr <4 x i32>* %p1, i32 0, i32 2
	%v3 = call float @_Z5frexpfPi(float %s3_0, i32* %s3_1)
	%r3 = insertelement <4 x float> %r2, float %v3, i32 2
	ret <4 x float> %r3
}
define <4 x float> @_Z5hypotu2v3fu2v3f(<4 x float> %p0, <4 x float> %p1) nounwind {
	%s1_0 = extractelement <4 x float> %p0, i32 0
	%s1_1 = extractelement <4 x float> %p1, i32 0
	%v1 = call float @_Z5hypotff(float %s1_0, float %s1_1)
	%r1 = insertelement <4 x float> undef, float %v1, i32 0
	%s2_0 = extractelement <4 x float> %p0, i32 1
	%s2_1 = extractelement <4 x float> %p1, i32 1
	%v2 = call float @_Z5hypotff(float %s2_0, float %s2_1)
	%r2 = insertelement <4 x float> %r1, float %v2, i32 1
	%s3_0 = extractelement <4 x float> %p0, i32 2
	%s3_1 = extractelement <4 x float> %p1, i32 2
	%v3 = call float @_Z5hypotff(float %s3_0, float %s3_1)
	%r3 = insertelement <4 x float> %r2, float %v3, i32 2
	ret <4 x float> %r3
}
define <4 x float> @_Z5ldexpu2v3fu2v3i(<4 x float> %p0, <4 x i32> %p1) nounwind {
	%s1_0 = extractelement <4 x float> %p0, i32 0
	%s1_1 = extractelement <4 x i32> %p1, i32 0
	%v1 = call float @_Z5ldexpfi(float %s1_0, i32 %s1_1)
	%r1 = insertelement <4 x float> undef, float %v1, i32 0
	%s2_0 = extractelement <4 x float> %p0, i32 1
	%s2_1 = extractelement <4 x i32> %p1, i32 1
	%v2 = call float @_Z5ldexpfi(float %s2_0, i32 %s2_1)
	%r2 = insertelement <4 x float> %r1, float %v2, i32 1
	%s3_0 = extractelement <4 x float> %p0, i32 2
	%s3_1 = extractelement <4 x i32> %p1, i32 2
	%v3 = call float @_Z5ldexpfi(float %s3_0, i32 %s3_1)
	%r3 = insertelement <4 x float> %r2, float %v3, i32 2
	ret <4 x float> %r3
}
define <4 x float> @_Z6lgammau2v3f(<4 x float> %p0) nounwind {
	%s1_0 = extractelement <4 x float> %p0, i32 0
	%v1 = call float @_Z6lgammaf(float %s1_0)
	%r1 = insertelement <4 x float> undef, float %v1, i32 0
	%s2_0 = extractelement <4 x float> %p0, i32 1
	%v2 = call float @_Z6lgammaf(float %s2_0)
	%r2 = insertelement <4 x float> %r1, float %v2, i32 1
	%s3_0 = extractelement <4 x float> %p0, i32 2
	%v3 = call float @_Z6lgammaf(float %s3_0)
	%r3 = insertelement <4 x float> %r2, float %v3, i32 2
	ret <4 x float> %r3
}
define <4 x float> @_Z8lgamma_ru2v3fPu2v3i(<4 x float> %p0, <4 x i32>* %p1) nounwind {
	%s1_0 = extractelement <4 x float> %p0, i32 0
	%s1_1 = getelementptr <4 x i32>* %p1, i32 0, i32 0
	%v1 = call float @_Z8lgamma_rfPi(float %s1_0, i32* %s1_1)
	%r1 = insertelement <4 x float> undef, float %v1, i32 0
	%s2_0 = extractelement <4 x float> %p0, i32 1
	%s2_1 = getelementptr <4 x i32>* %p1, i32 0, i32 1
	%v2 = call float @_Z8lgamma_rfPi(float %s2_0, i32* %s2_1)
	%r2 = insertelement <4 x float> %r1, float %v2, i32 1
	%s3_0 = extractelement <4 x float> %p0, i32 2
	%s3_1 = getelementptr <4 x i32>* %p1, i32 0, i32 2
	%v3 = call float @_Z8lgamma_rfPi(float %s3_0, i32* %s3_1)
	%r3 = insertelement <4 x float> %r2, float %v3, i32 2
	ret <4 x float> %r3
}
define <4 x float> @_Z4log2u2v3f(<4 x float> %p0) nounwind {
	%s1_0 = extractelement <4 x float> %p0, i32 0
	%v1 = call float @_Z4log2f(float %s1_0)
	%r1 = insertelement <4 x float> undef, float %v1, i32 0
	%s2_0 = extractelement <4 x float> %p0, i32 1
	%v2 = call float @_Z4log2f(float %s2_0)
	%r2 = insertelement <4 x float> %r1, float %v2, i32 1
	%s3_0 = extractelement <4 x float> %p0, i32 2
	%v3 = call float @_Z4log2f(float %s3_0)
	%r3 = insertelement <4 x float> %r2, float %v3, i32 2
	ret <4 x float> %r3
}
define <4 x float> @_Z5log10u2v3f(<4 x float> %p0) nounwind {
	%s1_0 = extractelement <4 x float> %p0, i32 0
	%v1 = call float @_Z5log10f(float %s1_0)
	%r1 = insertelement <4 x float> undef, float %v1, i32 0
	%s2_0 = extractelement <4 x float> %p0, i32 1
	%v2 = call float @_Z5log10f(float %s2_0)
	%r2 = insertelement <4 x float> %r1, float %v2, i32 1
	%s3_0 = extractelement <4 x float> %p0, i32 2
	%v3 = call float @_Z5log10f(float %s3_0)
	%r3 = insertelement <4 x float> %r2, float %v3, i32 2
	ret <4 x float> %r3
}
define <4 x float> @_Z5log1pu2v3f(<4 x float> %p0) nounwind {
	%s1_0 = extractelement <4 x float> %p0, i32 0
	%v1 = call float @_Z5log1pf(float %s1_0)
	%r1 = insertelement <4 x float> undef, float %v1, i32 0
	%s2_0 = extractelement <4 x float> %p0, i32 1
	%v2 = call float @_Z5log1pf(float %s2_0)
	%r2 = insertelement <4 x float> %r1, float %v2, i32 1
	%s3_0 = extractelement <4 x float> %p0, i32 2
	%v3 = call float @_Z5log1pf(float %s3_0)
	%r3 = insertelement <4 x float> %r2, float %v3, i32 2
	ret <4 x float> %r3
}
define <4 x float> @_Z4logbu2v3f(<4 x float> %p0) nounwind {
	%s1_0 = extractelement <4 x float> %p0, i32 0
	%v1 = call float @_Z4logbf(float %s1_0)
	%r1 = insertelement <4 x float> undef, float %v1, i32 0
	%s2_0 = extractelement <4 x float> %p0, i32 1
	%v2 = call float @_Z4logbf(float %s2_0)
	%r2 = insertelement <4 x float> %r1, float %v2, i32 1
	%s3_0 = extractelement <4 x float> %p0, i32 2
	%v3 = call float @_Z4logbf(float %s3_0)
	%r3 = insertelement <4 x float> %r2, float %v3, i32 2
	ret <4 x float> %r3
}
define <4 x float> @_Z3madu2v3fu2v3fu2v3f(<4 x float> %p0, <4 x float> %p1, <4 x float> %p2) nounwind {
	%s1_0 = extractelement <4 x float> %p0, i32 0
	%s1_1 = extractelement <4 x float> %p1, i32 0
	%s1_2 = extractelement <4 x float> %p2, i32 0
	%v1 = call float @_Z3madfff(float %s1_0, float %s1_1, float %s1_2)
	%r1 = insertelement <4 x float> undef, float %v1, i32 0
	%s2_0 = extractelement <4 x float> %p0, i32 1
	%s2_1 = extractelement <4 x float> %p1, i32 1
	%s2_2 = extractelement <4 x float> %p2, i32 1
	%v2 = call float @_Z3madfff(float %s2_0, float %s2_1, float %s2_2)
	%r2 = insertelement <4 x float> %r1, float %v2, i32 1
	%s3_0 = extractelement <4 x float> %p0, i32 2
	%s3_1 = extractelement <4 x float> %p1, i32 2
	%s3_2 = extractelement <4 x float> %p2, i32 2
	%v3 = call float @_Z3madfff(float %s3_0, float %s3_1, float %s3_2)
	%r3 = insertelement <4 x float> %r2, float %v3, i32 2
	ret <4 x float> %r3
}
define <4 x float> @_Z6maxmagu2v3fu2v3f(<4 x float> %p0, <4 x float> %p1) nounwind {
	%s1_0 = extractelement <4 x float> %p0, i32 0
	%s1_1 = extractelement <4 x float> %p1, i32 0
	%v1 = call float @_Z6maxmagff(float %s1_0, float %s1_1)
	%r1 = insertelement <4 x float> undef, float %v1, i32 0
	%s2_0 = extractelement <4 x float> %p0, i32 1
	%s2_1 = extractelement <4 x float> %p1, i32 1
	%v2 = call float @_Z6maxmagff(float %s2_0, float %s2_1)
	%r2 = insertelement <4 x float> %r1, float %v2, i32 1
	%s3_0 = extractelement <4 x float> %p0, i32 2
	%s3_1 = extractelement <4 x float> %p1, i32 2
	%v3 = call float @_Z6maxmagff(float %s3_0, float %s3_1)
	%r3 = insertelement <4 x float> %r2, float %v3, i32 2
	ret <4 x float> %r3
}
define <4 x float> @_Z6minmagu2v3fu2v3f(<4 x float> %p0, <4 x float> %p1) nounwind {
	%s1_0 = extractelement <4 x float> %p0, i32 0
	%s1_1 = extractelement <4 x float> %p1, i32 0
	%v1 = call float @_Z6minmagff(float %s1_0, float %s1_1)
	%r1 = insertelement <4 x float> undef, float %v1, i32 0
	%s2_0 = extractelement <4 x float> %p0, i32 1
	%s2_1 = extractelement <4 x float> %p1, i32 1
	%v2 = call float @_Z6minmagff(float %s2_0, float %s2_1)
	%r2 = insertelement <4 x float> %r1, float %v2, i32 1
	%s3_0 = extractelement <4 x float> %p0, i32 2
	%s3_1 = extractelement <4 x float> %p1, i32 2
	%v3 = call float @_Z6minmagff(float %s3_0, float %s3_1)
	%r3 = insertelement <4 x float> %r2, float %v3, i32 2
	ret <4 x float> %r3
}
define <4 x float> @_Z4modfu2v3fPu2v3f(<4 x float> %p0, <4 x float>* %p1) nounwind {
	%s1_0 = extractelement <4 x float> %p0, i32 0
	%s1_1 = getelementptr <4 x float>* %p1, i32 0, i32 0
	%v1 = call float @_Z4modffPf(float %s1_0, float* %s1_1)
	%r1 = insertelement <4 x float> undef, float %v1, i32 0
	%s2_0 = extractelement <4 x float> %p0, i32 1
	%s2_1 = getelementptr <4 x float>* %p1, i32 0, i32 1
	%v2 = call float @_Z4modffPf(float %s2_0, float* %s2_1)
	%r2 = insertelement <4 x float> %r1, float %v2, i32 1
	%s3_0 = extractelement <4 x float> %p0, i32 2
	%s3_1 = getelementptr <4 x float>* %p1, i32 0, i32 2
	%v3 = call float @_Z4modffPf(float %s3_0, float* %s3_1)
	%r3 = insertelement <4 x float> %r2, float %v3, i32 2
	ret <4 x float> %r3
}
define <4 x float> @_Z9nextafteru2v3fu2v3f(<4 x float> %p0, <4 x float> %p1) nounwind {
	%s1_0 = extractelement <4 x float> %p0, i32 0
	%s1_1 = extractelement <4 x float> %p1, i32 0
	%v1 = call float @_Z9nextafterff(float %s1_0, float %s1_1)
	%r1 = insertelement <4 x float> undef, float %v1, i32 0
	%s2_0 = extractelement <4 x float> %p0, i32 1
	%s2_1 = extractelement <4 x float> %p1, i32 1
	%v2 = call float @_Z9nextafterff(float %s2_0, float %s2_1)
	%r2 = insertelement <4 x float> %r1, float %v2, i32 1
	%s3_0 = extractelement <4 x float> %p0, i32 2
	%s3_1 = extractelement <4 x float> %p1, i32 2
	%v3 = call float @_Z9nextafterff(float %s3_0, float %s3_1)
	%r3 = insertelement <4 x float> %r2, float %v3, i32 2
	ret <4 x float> %r3
}
define <4 x float> @_Z4powru2v3fu2v3f(<4 x float> %p0, <4 x float> %p1) nounwind {
	%s1_0 = extractelement <4 x float> %p0, i32 0
	%s1_1 = extractelement <4 x float> %p1, i32 0
	%v1 = call float @_Z4powrff(float %s1_0, float %s1_1)
	%r1 = insertelement <4 x float> undef, float %v1, i32 0
	%s2_0 = extractelement <4 x float> %p0, i32 1
	%s2_1 = extractelement <4 x float> %p1, i32 1
	%v2 = call float @_Z4powrff(float %s2_0, float %s2_1)
	%r2 = insertelement <4 x float> %r1, float %v2, i32 1
	%s3_0 = extractelement <4 x float> %p0, i32 2
	%s3_1 = extractelement <4 x float> %p1, i32 2
	%v3 = call float @_Z4powrff(float %s3_0, float %s3_1)
	%r3 = insertelement <4 x float> %r2, float %v3, i32 2
	ret <4 x float> %r3
}
define <4 x float> @_Z9remainderu2v3fu2v3f(<4 x float> %p0, <4 x float> %p1) nounwind {
	%s1_0 = extractelement <4 x float> %p0, i32 0
	%s1_1 = extractelement <4 x float> %p1, i32 0
	%v1 = call float @_Z9remainderff(float %s1_0, float %s1_1)
	%r1 = insertelement <4 x float> undef, float %v1, i32 0
	%s2_0 = extractelement <4 x float> %p0, i32 1
	%s2_1 = extractelement <4 x float> %p1, i32 1
	%v2 = call float @_Z9remainderff(float %s2_0, float %s2_1)
	%r2 = insertelement <4 x float> %r1, float %v2, i32 1
	%s3_0 = extractelement <4 x float> %p0, i32 2
	%s3_1 = extractelement <4 x float> %p1, i32 2
	%v3 = call float @_Z9remainderff(float %s3_0, float %s3_1)
	%r3 = insertelement <4 x float> %r2, float %v3, i32 2
	ret <4 x float> %r3
}
define <4 x float> @_Z6remquou2v3fu2v3fPu2v3i(<4 x float> %p0, <4 x float> %p1, <4 x i32>* %p2) nounwind {
	%s1_0 = extractelement <4 x float> %p0, i32 0
	%s1_1 = extractelement <4 x float> %p1, i32 0
	%s1_2 = getelementptr <4 x i32>* %p2, i32 0, i32 0
	%v1 = call float @_Z6remquoffPi(float %s1_0, float %s1_1, i32* %s1_2)
	%r1 = insertelement <4 x float> undef, float %v1, i32 0
	%s2_0 = extractelement <4 x float> %p0, i32 1
	%s2_1 = extractelement <4 x float> %p1, i32 1
	%s2_2 = getelementptr <4 x i32>* %p2, i32 0, i32 1
	%v2 = call float @_Z6remquoffPi(float %s2_0, float %s2_1, i32* %s2_2)
	%r2 = insertelement <4 x float> %r1, float %v2, i32 1
	%s3_0 = extractelement <4 x float> %p0, i32 2
	%s3_1 = extractelement <4 x float> %p1, i32 2
	%s3_2 = getelementptr <4 x i32>* %p2, i32 0, i32 2
	%v3 = call float @_Z6remquoffPi(float %s3_0, float %s3_1, i32* %s3_2)
	%r3 = insertelement <4 x float> %r2, float %v3, i32 2
	ret <4 x float> %r3
}
define <4 x float> @_Z4rintu2v3f(<4 x float> %p0) nounwind {
	%s1_0 = extractelement <4 x float> %p0, i32 0
	%v1 = call float @_Z4rintf(float %s1_0)
	%r1 = insertelement <4 x float> undef, float %v1, i32 0
	%s2_0 = extractelement <4 x float> %p0, i32 1
	%v2 = call float @_Z4rintf(float %s2_0)
	%r2 = insertelement <4 x float> %r1, float %v2, i32 1
	%s3_0 = extractelement <4 x float> %p0, i32 2
	%v3 = call float @_Z4rintf(float %s3_0)
	%r3 = insertelement <4 x float> %r2, float %v3, i32 2
	ret <4 x float> %r3
}
define <4 x float> @_Z5rootnu2v3fu2v3i(<4 x float> %p0, <4 x i32> %p1) nounwind {
	%s1_0 = extractelement <4 x float> %p0, i32 0
	%s1_1 = extractelement <4 x i32> %p1, i32 0
	%v1 = call float @_Z5rootnfi(float %s1_0, i32 %s1_1)
	%r1 = insertelement <4 x float> undef, float %v1, i32 0
	%s2_0 = extractelement <4 x float> %p0, i32 1
	%s2_1 = extractelement <4 x i32> %p1, i32 1
	%v2 = call float @_Z5rootnfi(float %s2_0, i32 %s2_1)
	%r2 = insertelement <4 x float> %r1, float %v2, i32 1
	%s3_0 = extractelement <4 x float> %p0, i32 2
	%s3_1 = extractelement <4 x i32> %p1, i32 2
	%v3 = call float @_Z5rootnfi(float %s3_0, i32 %s3_1)
	%r3 = insertelement <4 x float> %r2, float %v3, i32 2
	ret <4 x float> %r3
}
define <4 x float> @_Z5roundu2v3f(<4 x float> %p0) nounwind {
	%s1_0 = extractelement <4 x float> %p0, i32 0
	%v1 = call float @_Z5roundf(float %s1_0)
	%r1 = insertelement <4 x float> undef, float %v1, i32 0
	%s2_0 = extractelement <4 x float> %p0, i32 1
	%v2 = call float @_Z5roundf(float %s2_0)
	%r2 = insertelement <4 x float> %r1, float %v2, i32 1
	%s3_0 = extractelement <4 x float> %p0, i32 2
	%v3 = call float @_Z5roundf(float %s3_0)
	%r3 = insertelement <4 x float> %r2, float %v3, i32 2
	ret <4 x float> %r3
}
define <4 x float> @_Z5rsqrtu2v3f(<4 x float> %p0) nounwind {
	%s1_0 = extractelement <4 x float> %p0, i32 0
	%v1 = call float @_Z5rsqrtf(float %s1_0)
	%r1 = insertelement <4 x float> undef, float %v1, i32 0
	%s2_0 = extractelement <4 x float> %p0, i32 1
	%v2 = call float @_Z5rsqrtf(float %s2_0)
	%r2 = insertelement <4 x float> %r1, float %v2, i32 1
	%s3_0 = extractelement <4 x float> %p0, i32 2
	%v3 = call float @_Z5rsqrtf(float %s3_0)
	%r3 = insertelement <4 x float> %r2, float %v3, i32 2
	ret <4 x float> %r3
}
define <4 x float> @_Z6sincosu2v3fPu2v3f(<4 x float> %p0, <4 x float>* %p1) nounwind {
	%s1_0 = extractelement <4 x float> %p0, i32 0
	%s1_1 = getelementptr <4 x float>* %p1, i32 0, i32 0
	%v1 = call float @_Z6sincosfPf(float %s1_0, float* %s1_1)
	%r1 = insertelement <4 x float> undef, float %v1, i32 0
	%s2_0 = extractelement <4 x float> %p0, i32 1
	%s2_1 = getelementptr <4 x float>* %p1, i32 0, i32 1
	%v2 = call float @_Z6sincosfPf(float %s2_0, float* %s2_1)
	%r2 = insertelement <4 x float> %r1, float %v2, i32 1
	%s3_0 = extractelement <4 x float> %p0, i32 2
	%s3_1 = getelementptr <4 x float>* %p1, i32 0, i32 2
	%v3 = call float @_Z6sincosfPf(float %s3_0, float* %s3_1)
	%r3 = insertelement <4 x float> %r2, float %v3, i32 2
	ret <4 x float> %r3
}
define <4 x float> @_Z4sinhu2v3f(<4 x float> %p0) nounwind {
	%s1_0 = extractelement <4 x float> %p0, i32 0
	%v1 = call float @_Z4sinhf(float %s1_0)
	%r1 = insertelement <4 x float> undef, float %v1, i32 0
	%s2_0 = extractelement <4 x float> %p0, i32 1
	%v2 = call float @_Z4sinhf(float %s2_0)
	%r2 = insertelement <4 x float> %r1, float %v2, i32 1
	%s3_0 = extractelement <4 x float> %p0, i32 2
	%v3 = call float @_Z4sinhf(float %s3_0)
	%r3 = insertelement <4 x float> %r2, float %v3, i32 2
	ret <4 x float> %r3
}
define <4 x float> @_Z5sinpiu2v3f(<4 x float> %p0) nounwind {
	%s1_0 = extractelement <4 x float> %p0, i32 0
	%v1 = call float @_Z5sinpif(float %s1_0)
	%r1 = insertelement <4 x float> undef, float %v1, i32 0
	%s2_0 = extractelement <4 x float> %p0, i32 1
	%v2 = call float @_Z5sinpif(float %s2_0)
	%r2 = insertelement <4 x float> %r1, float %v2, i32 1
	%s3_0 = extractelement <4 x float> %p0, i32 2
	%v3 = call float @_Z5sinpif(float %s3_0)
	%r3 = insertelement <4 x float> %r2, float %v3, i32 2
	ret <4 x float> %r3
}
define <4 x float> @_Z3tanu2v3f(<4 x float> %p0) nounwind {
	%s1_0 = extractelement <4 x float> %p0, i32 0
	%v1 = call float @_Z3tanf(float %s1_0)
	%r1 = insertelement <4 x float> undef, float %v1, i32 0
	%s2_0 = extractelement <4 x float> %p0, i32 1
	%v2 = call float @_Z3tanf(float %s2_0)
	%r2 = insertelement <4 x float> %r1, float %v2, i32 1
	%s3_0 = extractelement <4 x float> %p0, i32 2
	%v3 = call float @_Z3tanf(float %s3_0)
	%r3 = insertelement <4 x float> %r2, float %v3, i32 2
	ret <4 x float> %r3
}
define <4 x float> @_Z4tanhu2v3f(<4 x float> %p0) nounwind {
	%s1_0 = extractelement <4 x float> %p0, i32 0
	%v1 = call float @_Z4tanhf(float %s1_0)
	%r1 = insertelement <4 x float> undef, float %v1, i32 0
	%s2_0 = extractelement <4 x float> %p0, i32 1
	%v2 = call float @_Z4tanhf(float %s2_0)
	%r2 = insertelement <4 x float> %r1, float %v2, i32 1
	%s3_0 = extractelement <4 x float> %p0, i32 2
	%v3 = call float @_Z4tanhf(float %s3_0)
	%r3 = insertelement <4 x float> %r2, float %v3, i32 2
	ret <4 x float> %r3
}
define <4 x float> @_Z5tanpiu2v3f(<4 x float> %p0) nounwind {
	%s1_0 = extractelement <4 x float> %p0, i32 0
	%v1 = call float @_Z5tanpif(float %s1_0)
	%r1 = insertelement <4 x float> undef, float %v1, i32 0
	%s2_0 = extractelement <4 x float> %p0, i32 1
	%v2 = call float @_Z5tanpif(float %s2_0)
	%r2 = insertelement <4 x float> %r1, float %v2, i32 1
	%s3_0 = extractelement <4 x float> %p0, i32 2
	%v3 = call float @_Z5tanpif(float %s3_0)
	%r3 = insertelement <4 x float> %r2, float %v3, i32 2
	ret <4 x float> %r3
}
define <4 x float> @_Z6tgammau2v3f(<4 x float> %p0) nounwind {
	%s1_0 = extractelement <4 x float> %p0, i32 0
	%v1 = call float @_Z6tgammaf(float %s1_0)
	%r1 = insertelement <4 x float> undef, float %v1, i32 0
	%s2_0 = extractelement <4 x float> %p0, i32 1
	%v2 = call float @_Z6tgammaf(float %s2_0)
	%r2 = insertelement <4 x float> %r1, float %v2, i32 1
	%s3_0 = extractelement <4 x float> %p0, i32 2
	%v3 = call float @_Z6tgammaf(float %s3_0)
	%r3 = insertelement <4 x float> %r2, float %v3, i32 2
	ret <4 x float> %r3
}
define <4 x float> @_Z5truncu2v3f(<4 x float> %p0) nounwind {
	%s1_0 = extractelement <4 x float> %p0, i32 0
	%v1 = call float @_Z5truncf(float %s1_0)
	%r1 = insertelement <4 x float> undef, float %v1, i32 0
	%s2_0 = extractelement <4 x float> %p0, i32 1
	%v2 = call float @_Z5truncf(float %s2_0)
	%r2 = insertelement <4 x float> %r1, float %v2, i32 1
	%s3_0 = extractelement <4 x float> %p0, i32 2
	%v3 = call float @_Z5truncf(float %s3_0)
	%r3 = insertelement <4 x float> %r2, float %v3, i32 2
	ret <4 x float> %r3
}
define <4 x float> @_Z8half_cosu2v3f(<4 x float> %p0) nounwind {
	%s1_0 = extractelement <4 x float> %p0, i32 0
	%v1 = call float @_Z8half_cosf(float %s1_0)
	%r1 = insertelement <4 x float> undef, float %v1, i32 0
	%s2_0 = extractelement <4 x float> %p0, i32 1
	%v2 = call float @_Z8half_cosf(float %s2_0)
	%r2 = insertelement <4 x float> %r1, float %v2, i32 1
	%s3_0 = extractelement <4 x float> %p0, i32 2
	%v3 = call float @_Z8half_cosf(float %s3_0)
	%r3 = insertelement <4 x float> %r2, float %v3, i32 2
	ret <4 x float> %r3
}
define <4 x float> @_Z11half_divideu2v3fu2v3f(<4 x float> %p0, <4 x float> %p1) nounwind {
	%s1_0 = extractelement <4 x float> %p0, i32 0
	%s1_1 = extractelement <4 x float> %p1, i32 0
	%v1 = call float @_Z11half_divideff(float %s1_0, float %s1_1)
	%r1 = insertelement <4 x float> undef, float %v1, i32 0
	%s2_0 = extractelement <4 x float> %p0, i32 1
	%s2_1 = extractelement <4 x float> %p1, i32 1
	%v2 = call float @_Z11half_divideff(float %s2_0, float %s2_1)
	%r2 = insertelement <4 x float> %r1, float %v2, i32 1
	%s3_0 = extractelement <4 x float> %p0, i32 2
	%s3_1 = extractelement <4 x float> %p1, i32 2
	%v3 = call float @_Z11half_divideff(float %s3_0, float %s3_1)
	%r3 = insertelement <4 x float> %r2, float %v3, i32 2
	ret <4 x float> %r3
}
define <4 x float> @_Z8half_expu2v3f(<4 x float> %p0) nounwind {
	%s1_0 = extractelement <4 x float> %p0, i32 0
	%v1 = call float @_Z8half_expf(float %s1_0)
	%r1 = insertelement <4 x float> undef, float %v1, i32 0
	%s2_0 = extractelement <4 x float> %p0, i32 1
	%v2 = call float @_Z8half_expf(float %s2_0)
	%r2 = insertelement <4 x float> %r1, float %v2, i32 1
	%s3_0 = extractelement <4 x float> %p0, i32 2
	%v3 = call float @_Z8half_expf(float %s3_0)
	%r3 = insertelement <4 x float> %r2, float %v3, i32 2
	ret <4 x float> %r3
}
define <4 x float> @_Z9half_exp2u2v3f(<4 x float> %p0) nounwind {
	%s1_0 = extractelement <4 x float> %p0, i32 0
	%v1 = call float @_Z9half_exp2f(float %s1_0)
	%r1 = insertelement <4 x float> undef, float %v1, i32 0
	%s2_0 = extractelement <4 x float> %p0, i32 1
	%v2 = call float @_Z9half_exp2f(float %s2_0)
	%r2 = insertelement <4 x float> %r1, float %v2, i32 1
	%s3_0 = extractelement <4 x float> %p0, i32 2
	%v3 = call float @_Z9half_exp2f(float %s3_0)
	%r3 = insertelement <4 x float> %r2, float %v3, i32 2
	ret <4 x float> %r3
}
define <4 x float> @_Z10half_exp10u2v3f(<4 x float> %p0) nounwind {
	%s1_0 = extractelement <4 x float> %p0, i32 0
	%v1 = call float @_Z10half_exp10f(float %s1_0)
	%r1 = insertelement <4 x float> undef, float %v1, i32 0
	%s2_0 = extractelement <4 x float> %p0, i32 1
	%v2 = call float @_Z10half_exp10f(float %s2_0)
	%r2 = insertelement <4 x float> %r1, float %v2, i32 1
	%s3_0 = extractelement <4 x float> %p0, i32 2
	%v3 = call float @_Z10half_exp10f(float %s3_0)
	%r3 = insertelement <4 x float> %r2, float %v3, i32 2
	ret <4 x float> %r3
}
define <4 x float> @_Z8half_logu2v3f(<4 x float> %p0) nounwind {
	%s1_0 = extractelement <4 x float> %p0, i32 0
	%v1 = call float @_Z8half_logf(float %s1_0)
	%r1 = insertelement <4 x float> undef, float %v1, i32 0
	%s2_0 = extractelement <4 x float> %p0, i32 1
	%v2 = call float @_Z8half_logf(float %s2_0)
	%r2 = insertelement <4 x float> %r1, float %v2, i32 1
	%s3_0 = extractelement <4 x float> %p0, i32 2
	%v3 = call float @_Z8half_logf(float %s3_0)
	%r3 = insertelement <4 x float> %r2, float %v3, i32 2
	ret <4 x float> %r3
}
define <4 x float> @_Z9half_log2u2v3f(<4 x float> %p0) nounwind {
	%s1_0 = extractelement <4 x float> %p0, i32 0
	%v1 = call float @_Z9half_log2f(float %s1_0)
	%r1 = insertelement <4 x float> undef, float %v1, i32 0
	%s2_0 = extractelement <4 x float> %p0, i32 1
	%v2 = call float @_Z9half_log2f(float %s2_0)
	%r2 = insertelement <4 x float> %r1, float %v2, i32 1
	%s3_0 = extractelement <4 x float> %p0, i32 2
	%v3 = call float @_Z9half_log2f(float %s3_0)
	%r3 = insertelement <4 x float> %r2, float %v3, i32 2
	ret <4 x float> %r3
}
define <4 x float> @_Z10half_log10u2v3f(<4 x float> %p0) nounwind {
	%s1_0 = extractelement <4 x float> %p0, i32 0
	%v1 = call float @_Z10half_log10f(float %s1_0)
	%r1 = insertelement <4 x float> undef, float %v1, i32 0
	%s2_0 = extractelement <4 x float> %p0, i32 1
	%v2 = call float @_Z10half_log10f(float %s2_0)
	%r2 = insertelement <4 x float> %r1, float %v2, i32 1
	%s3_0 = extractelement <4 x float> %p0, i32 2
	%v3 = call float @_Z10half_log10f(float %s3_0)
	%r3 = insertelement <4 x float> %r2, float %v3, i32 2
	ret <4 x float> %r3
}
define <4 x float> @_Z9half_powru2v3fu2v3f(<4 x float> %p0, <4 x float> %p1) nounwind {
	%s1_0 = extractelement <4 x float> %p0, i32 0
	%s1_1 = extractelement <4 x float> %p1, i32 0
	%v1 = call float @_Z9half_powrff(float %s1_0, float %s1_1)
	%r1 = insertelement <4 x float> undef, float %v1, i32 0
	%s2_0 = extractelement <4 x float> %p0, i32 1
	%s2_1 = extractelement <4 x float> %p1, i32 1
	%v2 = call float @_Z9half_powrff(float %s2_0, float %s2_1)
	%r2 = insertelement <4 x float> %r1, float %v2, i32 1
	%s3_0 = extractelement <4 x float> %p0, i32 2
	%s3_1 = extractelement <4 x float> %p1, i32 2
	%v3 = call float @_Z9half_powrff(float %s3_0, float %s3_1)
	%r3 = insertelement <4 x float> %r2, float %v3, i32 2
	ret <4 x float> %r3
}
define <4 x float> @_Z10half_recipu2v3f(<4 x float> %p0) nounwind {
	%s1_0 = extractelement <4 x float> %p0, i32 0
	%v1 = call float @_Z10half_recipf(float %s1_0)
	%r1 = insertelement <4 x float> undef, float %v1, i32 0
	%s2_0 = extractelement <4 x float> %p0, i32 1
	%v2 = call float @_Z10half_recipf(float %s2_0)
	%r2 = insertelement <4 x float> %r1, float %v2, i32 1
	%s3_0 = extractelement <4 x float> %p0, i32 2
	%v3 = call float @_Z10half_recipf(float %s3_0)
	%r3 = insertelement <4 x float> %r2, float %v3, i32 2
	ret <4 x float> %r3
}
define <4 x float> @_Z10half_rsqrtu2v3f(<4 x float> %p0) nounwind {
	%s1_0 = extractelement <4 x float> %p0, i32 0
	%v1 = call float @_Z10half_rsqrtf(float %s1_0)
	%r1 = insertelement <4 x float> undef, float %v1, i32 0
	%s2_0 = extractelement <4 x float> %p0, i32 1
	%v2 = call float @_Z10half_rsqrtf(float %s2_0)
	%r2 = insertelement <4 x float> %r1, float %v2, i32 1
	%s3_0 = extractelement <4 x float> %p0, i32 2
	%v3 = call float @_Z10half_rsqrtf(float %s3_0)
	%r3 = insertelement <4 x float> %r2, float %v3, i32 2
	ret <4 x float> %r3
}
define <4 x float> @_Z8half_sinu2v3f(<4 x float> %p0) nounwind {
	%s1_0 = extractelement <4 x float> %p0, i32 0
	%v1 = call float @_Z8half_sinf(float %s1_0)
	%r1 = insertelement <4 x float> undef, float %v1, i32 0
	%s2_0 = extractelement <4 x float> %p0, i32 1
	%v2 = call float @_Z8half_sinf(float %s2_0)
	%r2 = insertelement <4 x float> %r1, float %v2, i32 1
	%s3_0 = extractelement <4 x float> %p0, i32 2
	%v3 = call float @_Z8half_sinf(float %s3_0)
	%r3 = insertelement <4 x float> %r2, float %v3, i32 2
	ret <4 x float> %r3
}
define <4 x float> @_Z9half_sqrtu2v3f(<4 x float> %p0) nounwind {
	%s1_0 = extractelement <4 x float> %p0, i32 0
	%v1 = call float @_Z9half_sqrtf(float %s1_0)
	%r1 = insertelement <4 x float> undef, float %v1, i32 0
	%s2_0 = extractelement <4 x float> %p0, i32 1
	%v2 = call float @_Z9half_sqrtf(float %s2_0)
	%r2 = insertelement <4 x float> %r1, float %v2, i32 1
	%s3_0 = extractelement <4 x float> %p0, i32 2
	%v3 = call float @_Z9half_sqrtf(float %s3_0)
	%r3 = insertelement <4 x float> %r2, float %v3, i32 2
	ret <4 x float> %r3
}
define <4 x float> @_Z8half_tanu2v3f(<4 x float> %p0) nounwind {
	%s1_0 = extractelement <4 x float> %p0, i32 0
	%v1 = call float @_Z8half_tanf(float %s1_0)
	%r1 = insertelement <4 x float> undef, float %v1, i32 0
	%s2_0 = extractelement <4 x float> %p0, i32 1
	%v2 = call float @_Z8half_tanf(float %s2_0)
	%r2 = insertelement <4 x float> %r1, float %v2, i32 1
	%s3_0 = extractelement <4 x float> %p0, i32 2
	%v3 = call float @_Z8half_tanf(float %s3_0)
	%r3 = insertelement <4 x float> %r2, float %v3, i32 2
	ret <4 x float> %r3
}
define <4 x float> @_Z11native_exp2u2v3f(<4 x float> %p0) nounwind {
	%s1_0 = extractelement <4 x float> %p0, i32 0
	%v1 = call float @_Z11native_exp2f(float %s1_0)
	%r1 = insertelement <4 x float> undef, float %v1, i32 0
	%s2_0 = extractelement <4 x float> %p0, i32 1
	%v2 = call float @_Z11native_exp2f(float %s2_0)
	%r2 = insertelement <4 x float> %r1, float %v2, i32 1
	%s3_0 = extractelement <4 x float> %p0, i32 2
	%v3 = call float @_Z11native_exp2f(float %s3_0)
	%r3 = insertelement <4 x float> %r2, float %v3, i32 2
	ret <4 x float> %r3
}
define <4 x float> @_Z12native_exp10u2v3f(<4 x float> %p0) nounwind {
	%s1_0 = extractelement <4 x float> %p0, i32 0
	%v1 = call float @_Z12native_exp10f(float %s1_0)
	%r1 = insertelement <4 x float> undef, float %v1, i32 0
	%s2_0 = extractelement <4 x float> %p0, i32 1
	%v2 = call float @_Z12native_exp10f(float %s2_0)
	%r2 = insertelement <4 x float> %r1, float %v2, i32 1
	%s3_0 = extractelement <4 x float> %p0, i32 2
	%v3 = call float @_Z12native_exp10f(float %s3_0)
	%r3 = insertelement <4 x float> %r2, float %v3, i32 2
	ret <4 x float> %r3
}
define <4 x float> @_Z11native_log2u2v3f(<4 x float> %p0) nounwind {
	%s1_0 = extractelement <4 x float> %p0, i32 0
	%v1 = call float @_Z11native_log2f(float %s1_0)
	%r1 = insertelement <4 x float> undef, float %v1, i32 0
	%s2_0 = extractelement <4 x float> %p0, i32 1
	%v2 = call float @_Z11native_log2f(float %s2_0)
	%r2 = insertelement <4 x float> %r1, float %v2, i32 1
	%s3_0 = extractelement <4 x float> %p0, i32 2
	%v3 = call float @_Z11native_log2f(float %s3_0)
	%r3 = insertelement <4 x float> %r2, float %v3, i32 2
	ret <4 x float> %r3
}
define <4 x float> @_Z12native_log10u2v3f(<4 x float> %p0) nounwind {
	%s1_0 = extractelement <4 x float> %p0, i32 0
	%v1 = call float @_Z12native_log10f(float %s1_0)
	%r1 = insertelement <4 x float> undef, float %v1, i32 0
	%s2_0 = extractelement <4 x float> %p0, i32 1
	%v2 = call float @_Z12native_log10f(float %s2_0)
	%r2 = insertelement <4 x float> %r1, float %v2, i32 1
	%s3_0 = extractelement <4 x float> %p0, i32 2
	%v3 = call float @_Z12native_log10f(float %s3_0)
	%r3 = insertelement <4 x float> %r2, float %v3, i32 2
	ret <4 x float> %r3
}
define <4 x float> @_Z12native_recipu2v3f(<4 x float> %p0) nounwind {
	%s1_0 = extractelement <4 x float> %p0, i32 0
	%v1 = call float @_Z12native_recipf(float %s1_0)
	%r1 = insertelement <4 x float> undef, float %v1, i32 0
	%s2_0 = extractelement <4 x float> %p0, i32 1
	%v2 = call float @_Z12native_recipf(float %s2_0)
	%r2 = insertelement <4 x float> %r1, float %v2, i32 1
	%s3_0 = extractelement <4 x float> %p0, i32 2
	%v3 = call float @_Z12native_recipf(float %s3_0)
	%r3 = insertelement <4 x float> %r2, float %v3, i32 2
	ret <4 x float> %r3
}
define <4 x float> @_Z12native_rsqrtu2v3f(<4 x float> %p0) nounwind {
	%s1_0 = extractelement <4 x float> %p0, i32 0
	%v1 = call float @_Z12native_rsqrtf(float %s1_0)
	%r1 = insertelement <4 x float> undef, float %v1, i32 0
	%s2_0 = extractelement <4 x float> %p0, i32 1
	%v2 = call float @_Z12native_rsqrtf(float %s2_0)
	%r2 = insertelement <4 x float> %r1, float %v2, i32 1
	%s3_0 = extractelement <4 x float> %p0, i32 2
	%v3 = call float @_Z12native_rsqrtf(float %s3_0)
	%r3 = insertelement <4 x float> %r2, float %v3, i32 2
	ret <4 x float> %r3
}
define <4 x float> @_Z11native_sqrtu2v3f(<4 x float> %p0) nounwind {
	%s1_0 = extractelement <4 x float> %p0, i32 0
	%v1 = call float @_Z11native_sqrtf(float %s1_0)
	%r1 = insertelement <4 x float> undef, float %v1, i32 0
	%s2_0 = extractelement <4 x float> %p0, i32 1
	%v2 = call float @_Z11native_sqrtf(float %s2_0)
	%r2 = insertelement <4 x float> %r1, float %v2, i32 1
	%s3_0 = extractelement <4 x float> %p0, i32 2
	%v3 = call float @_Z11native_sqrtf(float %s3_0)
	%r3 = insertelement <4 x float> %r2, float %v3, i32 2
	ret <4 x float> %r3
}
define <4 x float> @_Z10native_sinu2v3f(<4 x float> %p0) nounwind {
	%s1_0 = extractelement <4 x float> %p0, i32 0
	%v1 = call float @_Z10native_sinf(float %s1_0)
	%r1 = insertelement <4 x float> undef, float %v1, i32 0
	%s2_0 = extractelement <4 x float> %p0, i32 1
	%v2 = call float @_Z10native_sinf(float %s2_0)
	%r2 = insertelement <4 x float> %r1, float %v2, i32 1
	%s3_0 = extractelement <4 x float> %p0, i32 2
	%v3 = call float @_Z10native_sinf(float %s3_0)
	%r3 = insertelement <4 x float> %r2, float %v3, i32 2
	ret <4 x float> %r3
}
define <4 x float> @_Z10native_cosu2v3f(<4 x float> %p0) nounwind {
	%s1_0 = extractelement <4 x float> %p0, i32 0
	%v1 = call float @_Z10native_cosf(float %s1_0)
	%r1 = insertelement <4 x float> undef, float %v1, i32 0
	%s2_0 = extractelement <4 x float> %p0, i32 1
	%v2 = call float @_Z10native_cosf(float %s2_0)
	%r2 = insertelement <4 x float> %r1, float %v2, i32 1
	%s3_0 = extractelement <4 x float> %p0, i32 2
	%v3 = call float @_Z10native_cosf(float %s3_0)
	%r3 = insertelement <4 x float> %r2, float %v3, i32 2
	ret <4 x float> %r3
}
define <4 x float> @_Z10native_expu2v3f(<4 x float> %p0) nounwind {
	%s1_0 = extractelement <4 x float> %p0, i32 0
	%v1 = call float @_Z10native_expf(float %s1_0)
	%r1 = insertelement <4 x float> undef, float %v1, i32 0
	%s2_0 = extractelement <4 x float> %p0, i32 1
	%v2 = call float @_Z10native_expf(float %s2_0)
	%r2 = insertelement <4 x float> %r1, float %v2, i32 1
	%s3_0 = extractelement <4 x float> %p0, i32 2
	%v3 = call float @_Z10native_expf(float %s3_0)
	%r3 = insertelement <4 x float> %r2, float %v3, i32 2
	ret <4 x float> %r3
}
define <4 x float> @_Z10native_logu2v3f(<4 x float> %p0) nounwind {
	%s1_0 = extractelement <4 x float> %p0, i32 0
	%v1 = call float @_Z10native_logf(float %s1_0)
	%r1 = insertelement <4 x float> undef, float %v1, i32 0
	%s2_0 = extractelement <4 x float> %p0, i32 1
	%v2 = call float @_Z10native_logf(float %s2_0)
	%r2 = insertelement <4 x float> %r1, float %v2, i32 1
	%s3_0 = extractelement <4 x float> %p0, i32 2
	%v3 = call float @_Z10native_logf(float %s3_0)
	%r3 = insertelement <4 x float> %r2, float %v3, i32 2
	ret <4 x float> %r3
}
define <4 x float> @_Z10native_tanu2v3f(<4 x float> %p0) nounwind {
	%s1_0 = extractelement <4 x float> %p0, i32 0
	%v1 = call float @_Z10native_tanf(float %s1_0)
	%r1 = insertelement <4 x float> undef, float %v1, i32 0
	%s2_0 = extractelement <4 x float> %p0, i32 1
	%v2 = call float @_Z10native_tanf(float %s2_0)
	%r2 = insertelement <4 x float> %r1, float %v2, i32 1
	%s3_0 = extractelement <4 x float> %p0, i32 2
	%v3 = call float @_Z10native_tanf(float %s3_0)
	%r3 = insertelement <4 x float> %r2, float %v3, i32 2
	ret <4 x float> %r3
}
define <4 x float> @_Z13native_divideu2v3fu2v3f(<4 x float> %p0, <4 x float> %p1) nounwind {
	%s1_0 = extractelement <4 x float> %p0, i32 0
	%s1_1 = extractelement <4 x float> %p1, i32 0
	%v1 = call float @_Z13native_divideff(float %s1_0, float %s1_1)
	%r1 = insertelement <4 x float> undef, float %v1, i32 0
	%s2_0 = extractelement <4 x float> %p0, i32 1
	%s2_1 = extractelement <4 x float> %p1, i32 1
	%v2 = call float @_Z13native_divideff(float %s2_0, float %s2_1)
	%r2 = insertelement <4 x float> %r1, float %v2, i32 1
	%s3_0 = extractelement <4 x float> %p0, i32 2
	%s3_1 = extractelement <4 x float> %p1, i32 2
	%v3 = call float @_Z13native_divideff(float %s3_0, float %s3_1)
	%r3 = insertelement <4 x float> %r2, float %v3, i32 2
	ret <4 x float> %r3
}
define <4 x float> @_Z11native_powru2v3fu2v3f(<4 x float> %p0, <4 x float> %p1) nounwind {
	%s1_0 = extractelement <4 x float> %p0, i32 0
	%s1_1 = extractelement <4 x float> %p1, i32 0
	%v1 = call float @_Z11native_powrff(float %s1_0, float %s1_1)
	%r1 = insertelement <4 x float> undef, float %v1, i32 0
	%s2_0 = extractelement <4 x float> %p0, i32 1
	%s2_1 = extractelement <4 x float> %p1, i32 1
	%v2 = call float @_Z11native_powrff(float %s2_0, float %s2_1)
	%r2 = insertelement <4 x float> %r1, float %v2, i32 1
	%s3_0 = extractelement <4 x float> %p0, i32 2
	%s3_1 = extractelement <4 x float> %p1, i32 2
	%v3 = call float @_Z11native_powrff(float %s3_0, float %s3_1)
	%r3 = insertelement <4 x float> %r2, float %v3, i32 2
	ret <4 x float> %r3
}
define <4 x float> @_Z12native_ldexpu2v3fu2v3i(<4 x float> %p0, <4 x i32> %p1) nounwind {
	%s1_0 = extractelement <4 x float> %p0, i32 0
	%s1_1 = extractelement <4 x i32> %p1, i32 0
	%v1 = call float @_Z12native_ldexpfi(float %s1_0, i32 %s1_1)
	%r1 = insertelement <4 x float> undef, float %v1, i32 0
	%s2_0 = extractelement <4 x float> %p0, i32 1
	%s2_1 = extractelement <4 x i32> %p1, i32 1
	%v2 = call float @_Z12native_ldexpfi(float %s2_0, i32 %s2_1)
	%r2 = insertelement <4 x float> %r1, float %v2, i32 1
	%s3_0 = extractelement <4 x float> %p0, i32 2
	%s3_1 = extractelement <4 x i32> %p1, i32 2
	%v3 = call float @_Z12native_ldexpfi(float %s3_0, i32 %s3_1)
	%r3 = insertelement <4 x float> %r2, float %v3, i32 2
	ret <4 x float> %r3
}
define <4 x double> @_Z4acosu2v3d(<4 x double> %p0) nounwind {
	%s1_0 = extractelement <4 x double> %p0, i32 0
	%v1 = call double @_Z4acosd(double %s1_0)
	%r1 = insertelement <4 x double> undef, double %v1, i32 0
	%s2_0 = extractelement <4 x double> %p0, i32 1
	%v2 = call double @_Z4acosd(double %s2_0)
	%r2 = insertelement <4 x double> %r1, double %v2, i32 1
	%s3_0 = extractelement <4 x double> %p0, i32 2
	%v3 = call double @_Z4acosd(double %s3_0)
	%r3 = insertelement <4 x double> %r2, double %v3, i32 2
	ret <4 x double> %r3
}
define <4 x double> @_Z5acoshu2v3d(<4 x double> %p0) nounwind {
	%s1_0 = extractelement <4 x double> %p0, i32 0
	%v1 = call double @_Z5acoshd(double %s1_0)
	%r1 = insertelement <4 x double> undef, double %v1, i32 0
	%s2_0 = extractelement <4 x double> %p0, i32 1
	%v2 = call double @_Z5acoshd(double %s2_0)
	%r2 = insertelement <4 x double> %r1, double %v2, i32 1
	%s3_0 = extractelement <4 x double> %p0, i32 2
	%v3 = call double @_Z5acoshd(double %s3_0)
	%r3 = insertelement <4 x double> %r2, double %v3, i32 2
	ret <4 x double> %r3
}
define <4 x double> @_Z6acospiu2v3d(<4 x double> %p0) nounwind {
	%s1_0 = extractelement <4 x double> %p0, i32 0
	%v1 = call double @_Z6acospid(double %s1_0)
	%r1 = insertelement <4 x double> undef, double %v1, i32 0
	%s2_0 = extractelement <4 x double> %p0, i32 1
	%v2 = call double @_Z6acospid(double %s2_0)
	%r2 = insertelement <4 x double> %r1, double %v2, i32 1
	%s3_0 = extractelement <4 x double> %p0, i32 2
	%v3 = call double @_Z6acospid(double %s3_0)
	%r3 = insertelement <4 x double> %r2, double %v3, i32 2
	ret <4 x double> %r3
}
define <4 x double> @_Z4asinu2v3d(<4 x double> %p0) nounwind {
	%s1_0 = extractelement <4 x double> %p0, i32 0
	%v1 = call double @_Z4asind(double %s1_0)
	%r1 = insertelement <4 x double> undef, double %v1, i32 0
	%s2_0 = extractelement <4 x double> %p0, i32 1
	%v2 = call double @_Z4asind(double %s2_0)
	%r2 = insertelement <4 x double> %r1, double %v2, i32 1
	%s3_0 = extractelement <4 x double> %p0, i32 2
	%v3 = call double @_Z4asind(double %s3_0)
	%r3 = insertelement <4 x double> %r2, double %v3, i32 2
	ret <4 x double> %r3
}
define <4 x double> @_Z5asinhu2v3d(<4 x double> %p0) nounwind {
	%s1_0 = extractelement <4 x double> %p0, i32 0
	%v1 = call double @_Z5asinhd(double %s1_0)
	%r1 = insertelement <4 x double> undef, double %v1, i32 0
	%s2_0 = extractelement <4 x double> %p0, i32 1
	%v2 = call double @_Z5asinhd(double %s2_0)
	%r2 = insertelement <4 x double> %r1, double %v2, i32 1
	%s3_0 = extractelement <4 x double> %p0, i32 2
	%v3 = call double @_Z5asinhd(double %s3_0)
	%r3 = insertelement <4 x double> %r2, double %v3, i32 2
	ret <4 x double> %r3
}
define <4 x double> @_Z6asinpiu2v3d(<4 x double> %p0) nounwind {
	%s1_0 = extractelement <4 x double> %p0, i32 0
	%v1 = call double @_Z6asinpid(double %s1_0)
	%r1 = insertelement <4 x double> undef, double %v1, i32 0
	%s2_0 = extractelement <4 x double> %p0, i32 1
	%v2 = call double @_Z6asinpid(double %s2_0)
	%r2 = insertelement <4 x double> %r1, double %v2, i32 1
	%s3_0 = extractelement <4 x double> %p0, i32 2
	%v3 = call double @_Z6asinpid(double %s3_0)
	%r3 = insertelement <4 x double> %r2, double %v3, i32 2
	ret <4 x double> %r3
}
define <4 x double> @_Z4atanu2v3d(<4 x double> %p0) nounwind {
	%s1_0 = extractelement <4 x double> %p0, i32 0
	%v1 = call double @_Z4atand(double %s1_0)
	%r1 = insertelement <4 x double> undef, double %v1, i32 0
	%s2_0 = extractelement <4 x double> %p0, i32 1
	%v2 = call double @_Z4atand(double %s2_0)
	%r2 = insertelement <4 x double> %r1, double %v2, i32 1
	%s3_0 = extractelement <4 x double> %p0, i32 2
	%v3 = call double @_Z4atand(double %s3_0)
	%r3 = insertelement <4 x double> %r2, double %v3, i32 2
	ret <4 x double> %r3
}
define <4 x double> @_Z5atan2u2v3du2v3d(<4 x double> %p0, <4 x double> %p1) nounwind {
	%s1_0 = extractelement <4 x double> %p0, i32 0
	%s1_1 = extractelement <4 x double> %p1, i32 0
	%v1 = call double @_Z5atan2dd(double %s1_0, double %s1_1)
	%r1 = insertelement <4 x double> undef, double %v1, i32 0
	%s2_0 = extractelement <4 x double> %p0, i32 1
	%s2_1 = extractelement <4 x double> %p1, i32 1
	%v2 = call double @_Z5atan2dd(double %s2_0, double %s2_1)
	%r2 = insertelement <4 x double> %r1, double %v2, i32 1
	%s3_0 = extractelement <4 x double> %p0, i32 2
	%s3_1 = extractelement <4 x double> %p1, i32 2
	%v3 = call double @_Z5atan2dd(double %s3_0, double %s3_1)
	%r3 = insertelement <4 x double> %r2, double %v3, i32 2
	ret <4 x double> %r3
}
define <4 x double> @_Z5atanhu2v3d(<4 x double> %p0) nounwind {
	%s1_0 = extractelement <4 x double> %p0, i32 0
	%v1 = call double @_Z5atanhd(double %s1_0)
	%r1 = insertelement <4 x double> undef, double %v1, i32 0
	%s2_0 = extractelement <4 x double> %p0, i32 1
	%v2 = call double @_Z5atanhd(double %s2_0)
	%r2 = insertelement <4 x double> %r1, double %v2, i32 1
	%s3_0 = extractelement <4 x double> %p0, i32 2
	%v3 = call double @_Z5atanhd(double %s3_0)
	%r3 = insertelement <4 x double> %r2, double %v3, i32 2
	ret <4 x double> %r3
}
define <4 x double> @_Z6atanpiu2v3d(<4 x double> %p0) nounwind {
	%s1_0 = extractelement <4 x double> %p0, i32 0
	%v1 = call double @_Z6atanpid(double %s1_0)
	%r1 = insertelement <4 x double> undef, double %v1, i32 0
	%s2_0 = extractelement <4 x double> %p0, i32 1
	%v2 = call double @_Z6atanpid(double %s2_0)
	%r2 = insertelement <4 x double> %r1, double %v2, i32 1
	%s3_0 = extractelement <4 x double> %p0, i32 2
	%v3 = call double @_Z6atanpid(double %s3_0)
	%r3 = insertelement <4 x double> %r2, double %v3, i32 2
	ret <4 x double> %r3
}
define <4 x double> @_Z7atan2piu2v3du2v3d(<4 x double> %p0, <4 x double> %p1) nounwind {
	%s1_0 = extractelement <4 x double> %p0, i32 0
	%s1_1 = extractelement <4 x double> %p1, i32 0
	%v1 = call double @_Z7atan2pidd(double %s1_0, double %s1_1)
	%r1 = insertelement <4 x double> undef, double %v1, i32 0
	%s2_0 = extractelement <4 x double> %p0, i32 1
	%s2_1 = extractelement <4 x double> %p1, i32 1
	%v2 = call double @_Z7atan2pidd(double %s2_0, double %s2_1)
	%r2 = insertelement <4 x double> %r1, double %v2, i32 1
	%s3_0 = extractelement <4 x double> %p0, i32 2
	%s3_1 = extractelement <4 x double> %p1, i32 2
	%v3 = call double @_Z7atan2pidd(double %s3_0, double %s3_1)
	%r3 = insertelement <4 x double> %r2, double %v3, i32 2
	ret <4 x double> %r3
}
define <4 x double> @_Z4cbrtu2v3d(<4 x double> %p0) nounwind {
	%s1_0 = extractelement <4 x double> %p0, i32 0
	%v1 = call double @_Z4cbrtd(double %s1_0)
	%r1 = insertelement <4 x double> undef, double %v1, i32 0
	%s2_0 = extractelement <4 x double> %p0, i32 1
	%v2 = call double @_Z4cbrtd(double %s2_0)
	%r2 = insertelement <4 x double> %r1, double %v2, i32 1
	%s3_0 = extractelement <4 x double> %p0, i32 2
	%v3 = call double @_Z4cbrtd(double %s3_0)
	%r3 = insertelement <4 x double> %r2, double %v3, i32 2
	ret <4 x double> %r3
}
define <4 x double> @_Z4ceilu2v3d(<4 x double> %p0) nounwind {
	%s1_0 = extractelement <4 x double> %p0, i32 0
	%v1 = call double @_Z4ceild(double %s1_0)
	%r1 = insertelement <4 x double> undef, double %v1, i32 0
	%s2_0 = extractelement <4 x double> %p0, i32 1
	%v2 = call double @_Z4ceild(double %s2_0)
	%r2 = insertelement <4 x double> %r1, double %v2, i32 1
	%s3_0 = extractelement <4 x double> %p0, i32 2
	%v3 = call double @_Z4ceild(double %s3_0)
	%r3 = insertelement <4 x double> %r2, double %v3, i32 2
	ret <4 x double> %r3
}
define <4 x double> @_Z8copysignu2v3du2v3d(<4 x double> %p0, <4 x double> %p1) nounwind {
	%s1_0 = extractelement <4 x double> %p0, i32 0
	%s1_1 = extractelement <4 x double> %p1, i32 0
	%v1 = call double @_Z8copysigndd(double %s1_0, double %s1_1)
	%r1 = insertelement <4 x double> undef, double %v1, i32 0
	%s2_0 = extractelement <4 x double> %p0, i32 1
	%s2_1 = extractelement <4 x double> %p1, i32 1
	%v2 = call double @_Z8copysigndd(double %s2_0, double %s2_1)
	%r2 = insertelement <4 x double> %r1, double %v2, i32 1
	%s3_0 = extractelement <4 x double> %p0, i32 2
	%s3_1 = extractelement <4 x double> %p1, i32 2
	%v3 = call double @_Z8copysigndd(double %s3_0, double %s3_1)
	%r3 = insertelement <4 x double> %r2, double %v3, i32 2
	ret <4 x double> %r3
}
define <4 x double> @_Z4coshu2v3d(<4 x double> %p0) nounwind {
	%s1_0 = extractelement <4 x double> %p0, i32 0
	%v1 = call double @_Z4coshd(double %s1_0)
	%r1 = insertelement <4 x double> undef, double %v1, i32 0
	%s2_0 = extractelement <4 x double> %p0, i32 1
	%v2 = call double @_Z4coshd(double %s2_0)
	%r2 = insertelement <4 x double> %r1, double %v2, i32 1
	%s3_0 = extractelement <4 x double> %p0, i32 2
	%v3 = call double @_Z4coshd(double %s3_0)
	%r3 = insertelement <4 x double> %r2, double %v3, i32 2
	ret <4 x double> %r3
}
define <4 x double> @_Z5cospiu2v3d(<4 x double> %p0) nounwind {
	%s1_0 = extractelement <4 x double> %p0, i32 0
	%v1 = call double @_Z5cospid(double %s1_0)
	%r1 = insertelement <4 x double> undef, double %v1, i32 0
	%s2_0 = extractelement <4 x double> %p0, i32 1
	%v2 = call double @_Z5cospid(double %s2_0)
	%r2 = insertelement <4 x double> %r1, double %v2, i32 1
	%s3_0 = extractelement <4 x double> %p0, i32 2
	%v3 = call double @_Z5cospid(double %s3_0)
	%r3 = insertelement <4 x double> %r2, double %v3, i32 2
	ret <4 x double> %r3
}
define <4 x double> @_Z4erfcu2v3d(<4 x double> %p0) nounwind {
	%s1_0 = extractelement <4 x double> %p0, i32 0
	%v1 = call double @_Z4erfcd(double %s1_0)
	%r1 = insertelement <4 x double> undef, double %v1, i32 0
	%s2_0 = extractelement <4 x double> %p0, i32 1
	%v2 = call double @_Z4erfcd(double %s2_0)
	%r2 = insertelement <4 x double> %r1, double %v2, i32 1
	%s3_0 = extractelement <4 x double> %p0, i32 2
	%v3 = call double @_Z4erfcd(double %s3_0)
	%r3 = insertelement <4 x double> %r2, double %v3, i32 2
	ret <4 x double> %r3
}
define <4 x double> @_Z3erfu2v3d(<4 x double> %p0) nounwind {
	%s1_0 = extractelement <4 x double> %p0, i32 0
	%v1 = call double @_Z3erfd(double %s1_0)
	%r1 = insertelement <4 x double> undef, double %v1, i32 0
	%s2_0 = extractelement <4 x double> %p0, i32 1
	%v2 = call double @_Z3erfd(double %s2_0)
	%r2 = insertelement <4 x double> %r1, double %v2, i32 1
	%s3_0 = extractelement <4 x double> %p0, i32 2
	%v3 = call double @_Z3erfd(double %s3_0)
	%r3 = insertelement <4 x double> %r2, double %v3, i32 2
	ret <4 x double> %r3
}
define <4 x double> @_Z4exp2u2v3d(<4 x double> %p0) nounwind {
	%s1_0 = extractelement <4 x double> %p0, i32 0
	%v1 = call double @_Z4exp2d(double %s1_0)
	%r1 = insertelement <4 x double> undef, double %v1, i32 0
	%s2_0 = extractelement <4 x double> %p0, i32 1
	%v2 = call double @_Z4exp2d(double %s2_0)
	%r2 = insertelement <4 x double> %r1, double %v2, i32 1
	%s3_0 = extractelement <4 x double> %p0, i32 2
	%v3 = call double @_Z4exp2d(double %s3_0)
	%r3 = insertelement <4 x double> %r2, double %v3, i32 2
	ret <4 x double> %r3
}
define <4 x double> @_Z5exp10u2v3d(<4 x double> %p0) nounwind {
	%s1_0 = extractelement <4 x double> %p0, i32 0
	%v1 = call double @_Z5exp10d(double %s1_0)
	%r1 = insertelement <4 x double> undef, double %v1, i32 0
	%s2_0 = extractelement <4 x double> %p0, i32 1
	%v2 = call double @_Z5exp10d(double %s2_0)
	%r2 = insertelement <4 x double> %r1, double %v2, i32 1
	%s3_0 = extractelement <4 x double> %p0, i32 2
	%v3 = call double @_Z5exp10d(double %s3_0)
	%r3 = insertelement <4 x double> %r2, double %v3, i32 2
	ret <4 x double> %r3
}
define <4 x double> @_Z5expm1u2v3d(<4 x double> %p0) nounwind {
	%s1_0 = extractelement <4 x double> %p0, i32 0
	%v1 = call double @_Z5expm1d(double %s1_0)
	%r1 = insertelement <4 x double> undef, double %v1, i32 0
	%s2_0 = extractelement <4 x double> %p0, i32 1
	%v2 = call double @_Z5expm1d(double %s2_0)
	%r2 = insertelement <4 x double> %r1, double %v2, i32 1
	%s3_0 = extractelement <4 x double> %p0, i32 2
	%v3 = call double @_Z5expm1d(double %s3_0)
	%r3 = insertelement <4 x double> %r2, double %v3, i32 2
	ret <4 x double> %r3
}
define <4 x double> @_Z4fdimu2v3du2v3d(<4 x double> %p0, <4 x double> %p1) nounwind {
	%s1_0 = extractelement <4 x double> %p0, i32 0
	%s1_1 = extractelement <4 x double> %p1, i32 0
	%v1 = call double @_Z4fdimdd(double %s1_0, double %s1_1)
	%r1 = insertelement <4 x double> undef, double %v1, i32 0
	%s2_0 = extractelement <4 x double> %p0, i32 1
	%s2_1 = extractelement <4 x double> %p1, i32 1
	%v2 = call double @_Z4fdimdd(double %s2_0, double %s2_1)
	%r2 = insertelement <4 x double> %r1, double %v2, i32 1
	%s3_0 = extractelement <4 x double> %p0, i32 2
	%s3_1 = extractelement <4 x double> %p1, i32 2
	%v3 = call double @_Z4fdimdd(double %s3_0, double %s3_1)
	%r3 = insertelement <4 x double> %r2, double %v3, i32 2
	ret <4 x double> %r3
}
define <4 x double> @_Z4fmaxu2v3du2v3d(<4 x double> %p0, <4 x double> %p1) nounwind {
	%s1_0 = extractelement <4 x double> %p0, i32 0
	%s1_1 = extractelement <4 x double> %p1, i32 0
	%v1 = call double @_Z4fmaxdd(double %s1_0, double %s1_1)
	%r1 = insertelement <4 x double> undef, double %v1, i32 0
	%s2_0 = extractelement <4 x double> %p0, i32 1
	%s2_1 = extractelement <4 x double> %p1, i32 1
	%v2 = call double @_Z4fmaxdd(double %s2_0, double %s2_1)
	%r2 = insertelement <4 x double> %r1, double %v2, i32 1
	%s3_0 = extractelement <4 x double> %p0, i32 2
	%s3_1 = extractelement <4 x double> %p1, i32 2
	%v3 = call double @_Z4fmaxdd(double %s3_0, double %s3_1)
	%r3 = insertelement <4 x double> %r2, double %v3, i32 2
	ret <4 x double> %r3
}
define <4 x double> @_Z4fminu2v3du2v3d(<4 x double> %p0, <4 x double> %p1) nounwind {
	%s1_0 = extractelement <4 x double> %p0, i32 0
	%s1_1 = extractelement <4 x double> %p1, i32 0
	%v1 = call double @_Z4fmindd(double %s1_0, double %s1_1)
	%r1 = insertelement <4 x double> undef, double %v1, i32 0
	%s2_0 = extractelement <4 x double> %p0, i32 1
	%s2_1 = extractelement <4 x double> %p1, i32 1
	%v2 = call double @_Z4fmindd(double %s2_0, double %s2_1)
	%r2 = insertelement <4 x double> %r1, double %v2, i32 1
	%s3_0 = extractelement <4 x double> %p0, i32 2
	%s3_1 = extractelement <4 x double> %p1, i32 2
	%v3 = call double @_Z4fmindd(double %s3_0, double %s3_1)
	%r3 = insertelement <4 x double> %r2, double %v3, i32 2
	ret <4 x double> %r3
}
define <4 x double> @_Z4fmodu2v3du2v3d(<4 x double> %p0, <4 x double> %p1) nounwind {
	%s1_0 = extractelement <4 x double> %p0, i32 0
	%s1_1 = extractelement <4 x double> %p1, i32 0
	%v1 = call double @_Z4fmoddd(double %s1_0, double %s1_1)
	%r1 = insertelement <4 x double> undef, double %v1, i32 0
	%s2_0 = extractelement <4 x double> %p0, i32 1
	%s2_1 = extractelement <4 x double> %p1, i32 1
	%v2 = call double @_Z4fmoddd(double %s2_0, double %s2_1)
	%r2 = insertelement <4 x double> %r1, double %v2, i32 1
	%s3_0 = extractelement <4 x double> %p0, i32 2
	%s3_1 = extractelement <4 x double> %p1, i32 2
	%v3 = call double @_Z4fmoddd(double %s3_0, double %s3_1)
	%r3 = insertelement <4 x double> %r2, double %v3, i32 2
	ret <4 x double> %r3
}
define <4 x double> @_Z5fractu2v3dPu2v3d(<4 x double> %p0, <4 x double>* %p1) nounwind {
	%s1_0 = extractelement <4 x double> %p0, i32 0
	%s1_1 = getelementptr <4 x double>* %p1, i32 0, i32 0
	%v1 = call double @_Z5fractdPd(double %s1_0, double* %s1_1)
	%r1 = insertelement <4 x double> undef, double %v1, i32 0
	%s2_0 = extractelement <4 x double> %p0, i32 1
	%s2_1 = getelementptr <4 x double>* %p1, i32 0, i32 1
	%v2 = call double @_Z5fractdPd(double %s2_0, double* %s2_1)
	%r2 = insertelement <4 x double> %r1, double %v2, i32 1
	%s3_0 = extractelement <4 x double> %p0, i32 2
	%s3_1 = getelementptr <4 x double>* %p1, i32 0, i32 2
	%v3 = call double @_Z5fractdPd(double %s3_0, double* %s3_1)
	%r3 = insertelement <4 x double> %r2, double %v3, i32 2
	ret <4 x double> %r3
}
define <4 x double> @_Z5frexpu2v3dPu2v3i(<4 x double> %p0, <4 x i32>* %p1) nounwind {
	%s1_0 = extractelement <4 x double> %p0, i32 0
	%s1_1 = getelementptr <4 x i32>* %p1, i32 0, i32 0
	%v1 = call double @_Z5frexpdPi(double %s1_0, i32* %s1_1)
	%r1 = insertelement <4 x double> undef, double %v1, i32 0
	%s2_0 = extractelement <4 x double> %p0, i32 1
	%s2_1 = getelementptr <4 x i32>* %p1, i32 0, i32 1
	%v2 = call double @_Z5frexpdPi(double %s2_0, i32* %s2_1)
	%r2 = insertelement <4 x double> %r1, double %v2, i32 1
	%s3_0 = extractelement <4 x double> %p0, i32 2
	%s3_1 = getelementptr <4 x i32>* %p1, i32 0, i32 2
	%v3 = call double @_Z5frexpdPi(double %s3_0, i32* %s3_1)
	%r3 = insertelement <4 x double> %r2, double %v3, i32 2
	ret <4 x double> %r3
}
define <4 x double> @_Z5hypotu2v3du2v3d(<4 x double> %p0, <4 x double> %p1) nounwind {
	%s1_0 = extractelement <4 x double> %p0, i32 0
	%s1_1 = extractelement <4 x double> %p1, i32 0
	%v1 = call double @_Z5hypotdd(double %s1_0, double %s1_1)
	%r1 = insertelement <4 x double> undef, double %v1, i32 0
	%s2_0 = extractelement <4 x double> %p0, i32 1
	%s2_1 = extractelement <4 x double> %p1, i32 1
	%v2 = call double @_Z5hypotdd(double %s2_0, double %s2_1)
	%r2 = insertelement <4 x double> %r1, double %v2, i32 1
	%s3_0 = extractelement <4 x double> %p0, i32 2
	%s3_1 = extractelement <4 x double> %p1, i32 2
	%v3 = call double @_Z5hypotdd(double %s3_0, double %s3_1)
	%r3 = insertelement <4 x double> %r2, double %v3, i32 2
	ret <4 x double> %r3
}
define <4 x double> @_Z5ldexpu2v3du2v3i(<4 x double> %p0, <4 x i32> %p1) nounwind {
	%s1_0 = extractelement <4 x double> %p0, i32 0
	%s1_1 = extractelement <4 x i32> %p1, i32 0
	%v1 = call double @_Z5ldexpdi(double %s1_0, i32 %s1_1)
	%r1 = insertelement <4 x double> undef, double %v1, i32 0
	%s2_0 = extractelement <4 x double> %p0, i32 1
	%s2_1 = extractelement <4 x i32> %p1, i32 1
	%v2 = call double @_Z5ldexpdi(double %s2_0, i32 %s2_1)
	%r2 = insertelement <4 x double> %r1, double %v2, i32 1
	%s3_0 = extractelement <4 x double> %p0, i32 2
	%s3_1 = extractelement <4 x i32> %p1, i32 2
	%v3 = call double @_Z5ldexpdi(double %s3_0, i32 %s3_1)
	%r3 = insertelement <4 x double> %r2, double %v3, i32 2
	ret <4 x double> %r3
}
define <4 x double> @_Z6lgammau2v3d(<4 x double> %p0) nounwind {
	%s1_0 = extractelement <4 x double> %p0, i32 0
	%v1 = call double @_Z6lgammad(double %s1_0)
	%r1 = insertelement <4 x double> undef, double %v1, i32 0
	%s2_0 = extractelement <4 x double> %p0, i32 1
	%v2 = call double @_Z6lgammad(double %s2_0)
	%r2 = insertelement <4 x double> %r1, double %v2, i32 1
	%s3_0 = extractelement <4 x double> %p0, i32 2
	%v3 = call double @_Z6lgammad(double %s3_0)
	%r3 = insertelement <4 x double> %r2, double %v3, i32 2
	ret <4 x double> %r3
}
define <4 x double> @_Z8lgamma_ru2v3dPu2v3i(<4 x double> %p0, <4 x i32>* %p1) nounwind {
	%s1_0 = extractelement <4 x double> %p0, i32 0
	%s1_1 = getelementptr <4 x i32>* %p1, i32 0, i32 0
	%v1 = call double @_Z8lgamma_rdPi(double %s1_0, i32* %s1_1)
	%r1 = insertelement <4 x double> undef, double %v1, i32 0
	%s2_0 = extractelement <4 x double> %p0, i32 1
	%s2_1 = getelementptr <4 x i32>* %p1, i32 0, i32 1
	%v2 = call double @_Z8lgamma_rdPi(double %s2_0, i32* %s2_1)
	%r2 = insertelement <4 x double> %r1, double %v2, i32 1
	%s3_0 = extractelement <4 x double> %p0, i32 2
	%s3_1 = getelementptr <4 x i32>* %p1, i32 0, i32 2
	%v3 = call double @_Z8lgamma_rdPi(double %s3_0, i32* %s3_1)
	%r3 = insertelement <4 x double> %r2, double %v3, i32 2
	ret <4 x double> %r3
}
define <4 x double> @_Z4log2u2v3d(<4 x double> %p0) nounwind {
	%s1_0 = extractelement <4 x double> %p0, i32 0
	%v1 = call double @_Z4log2d(double %s1_0)
	%r1 = insertelement <4 x double> undef, double %v1, i32 0
	%s2_0 = extractelement <4 x double> %p0, i32 1
	%v2 = call double @_Z4log2d(double %s2_0)
	%r2 = insertelement <4 x double> %r1, double %v2, i32 1
	%s3_0 = extractelement <4 x double> %p0, i32 2
	%v3 = call double @_Z4log2d(double %s3_0)
	%r3 = insertelement <4 x double> %r2, double %v3, i32 2
	ret <4 x double> %r3
}
define <4 x double> @_Z5log10u2v3d(<4 x double> %p0) nounwind {
	%s1_0 = extractelement <4 x double> %p0, i32 0
	%v1 = call double @_Z5log10d(double %s1_0)
	%r1 = insertelement <4 x double> undef, double %v1, i32 0
	%s2_0 = extractelement <4 x double> %p0, i32 1
	%v2 = call double @_Z5log10d(double %s2_0)
	%r2 = insertelement <4 x double> %r1, double %v2, i32 1
	%s3_0 = extractelement <4 x double> %p0, i32 2
	%v3 = call double @_Z5log10d(double %s3_0)
	%r3 = insertelement <4 x double> %r2, double %v3, i32 2
	ret <4 x double> %r3
}
define <4 x double> @_Z5log1pu2v3d(<4 x double> %p0) nounwind {
	%s1_0 = extractelement <4 x double> %p0, i32 0
	%v1 = call double @_Z5log1pd(double %s1_0)
	%r1 = insertelement <4 x double> undef, double %v1, i32 0
	%s2_0 = extractelement <4 x double> %p0, i32 1
	%v2 = call double @_Z5log1pd(double %s2_0)
	%r2 = insertelement <4 x double> %r1, double %v2, i32 1
	%s3_0 = extractelement <4 x double> %p0, i32 2
	%v3 = call double @_Z5log1pd(double %s3_0)
	%r3 = insertelement <4 x double> %r2, double %v3, i32 2
	ret <4 x double> %r3
}
define <4 x double> @_Z4logbu2v3d(<4 x double> %p0) nounwind {
	%s1_0 = extractelement <4 x double> %p0, i32 0
	%v1 = call double @_Z4logbd(double %s1_0)
	%r1 = insertelement <4 x double> undef, double %v1, i32 0
	%s2_0 = extractelement <4 x double> %p0, i32 1
	%v2 = call double @_Z4logbd(double %s2_0)
	%r2 = insertelement <4 x double> %r1, double %v2, i32 1
	%s3_0 = extractelement <4 x double> %p0, i32 2
	%v3 = call double @_Z4logbd(double %s3_0)
	%r3 = insertelement <4 x double> %r2, double %v3, i32 2
	ret <4 x double> %r3
}
define <4 x double> @_Z3madu2v3du2v3du2v3d(<4 x double> %p0, <4 x double> %p1, <4 x double> %p2) nounwind {
	%s1_0 = extractelement <4 x double> %p0, i32 0
	%s1_1 = extractelement <4 x double> %p1, i32 0
	%s1_2 = extractelement <4 x double> %p2, i32 0
	%v1 = call double @_Z3madddd(double %s1_0, double %s1_1, double %s1_2)
	%r1 = insertelement <4 x double> undef, double %v1, i32 0
	%s2_0 = extractelement <4 x double> %p0, i32 1
	%s2_1 = extractelement <4 x double> %p1, i32 1
	%s2_2 = extractelement <4 x double> %p2, i32 1
	%v2 = call double @_Z3madddd(double %s2_0, double %s2_1, double %s2_2)
	%r2 = insertelement <4 x double> %r1, double %v2, i32 1
	%s3_0 = extractelement <4 x double> %p0, i32 2
	%s3_1 = extractelement <4 x double> %p1, i32 2
	%s3_2 = extractelement <4 x double> %p2, i32 2
	%v3 = call double @_Z3madddd(double %s3_0, double %s3_1, double %s3_2)
	%r3 = insertelement <4 x double> %r2, double %v3, i32 2
	ret <4 x double> %r3
}
define <4 x double> @_Z6maxmagu2v3du2v3d(<4 x double> %p0, <4 x double> %p1) nounwind {
	%s1_0 = extractelement <4 x double> %p0, i32 0
	%s1_1 = extractelement <4 x double> %p1, i32 0
	%v1 = call double @_Z6maxmagdd(double %s1_0, double %s1_1)
	%r1 = insertelement <4 x double> undef, double %v1, i32 0
	%s2_0 = extractelement <4 x double> %p0, i32 1
	%s2_1 = extractelement <4 x double> %p1, i32 1
	%v2 = call double @_Z6maxmagdd(double %s2_0, double %s2_1)
	%r2 = insertelement <4 x double> %r1, double %v2, i32 1
	%s3_0 = extractelement <4 x double> %p0, i32 2
	%s3_1 = extractelement <4 x double> %p1, i32 2
	%v3 = call double @_Z6maxmagdd(double %s3_0, double %s3_1)
	%r3 = insertelement <4 x double> %r2, double %v3, i32 2
	ret <4 x double> %r3
}
define <4 x double> @_Z6minmagu2v3du2v3d(<4 x double> %p0, <4 x double> %p1) nounwind {
	%s1_0 = extractelement <4 x double> %p0, i32 0
	%s1_1 = extractelement <4 x double> %p1, i32 0
	%v1 = call double @_Z6minmagdd(double %s1_0, double %s1_1)
	%r1 = insertelement <4 x double> undef, double %v1, i32 0
	%s2_0 = extractelement <4 x double> %p0, i32 1
	%s2_1 = extractelement <4 x double> %p1, i32 1
	%v2 = call double @_Z6minmagdd(double %s2_0, double %s2_1)
	%r2 = insertelement <4 x double> %r1, double %v2, i32 1
	%s3_0 = extractelement <4 x double> %p0, i32 2
	%s3_1 = extractelement <4 x double> %p1, i32 2
	%v3 = call double @_Z6minmagdd(double %s3_0, double %s3_1)
	%r3 = insertelement <4 x double> %r2, double %v3, i32 2
	ret <4 x double> %r3
}
define <4 x double> @_Z4modfu2v3dPu2v3d(<4 x double> %p0, <4 x double>* %p1) nounwind {
	%s1_0 = extractelement <4 x double> %p0, i32 0
	%s1_1 = getelementptr <4 x double>* %p1, i32 0, i32 0
	%v1 = call double @_Z4modfdPd(double %s1_0, double* %s1_1)
	%r1 = insertelement <4 x double> undef, double %v1, i32 0
	%s2_0 = extractelement <4 x double> %p0, i32 1
	%s2_1 = getelementptr <4 x double>* %p1, i32 0, i32 1
	%v2 = call double @_Z4modfdPd(double %s2_0, double* %s2_1)
	%r2 = insertelement <4 x double> %r1, double %v2, i32 1
	%s3_0 = extractelement <4 x double> %p0, i32 2
	%s3_1 = getelementptr <4 x double>* %p1, i32 0, i32 2
	%v3 = call double @_Z4modfdPd(double %s3_0, double* %s3_1)
	%r3 = insertelement <4 x double> %r2, double %v3, i32 2
	ret <4 x double> %r3
}
define <4 x double> @_Z9nextafteru2v3du2v3d(<4 x double> %p0, <4 x double> %p1) nounwind {
	%s1_0 = extractelement <4 x double> %p0, i32 0
	%s1_1 = extractelement <4 x double> %p1, i32 0
	%v1 = call double @_Z9nextafterdd(double %s1_0, double %s1_1)
	%r1 = insertelement <4 x double> undef, double %v1, i32 0
	%s2_0 = extractelement <4 x double> %p0, i32 1
	%s2_1 = extractelement <4 x double> %p1, i32 1
	%v2 = call double @_Z9nextafterdd(double %s2_0, double %s2_1)
	%r2 = insertelement <4 x double> %r1, double %v2, i32 1
	%s3_0 = extractelement <4 x double> %p0, i32 2
	%s3_1 = extractelement <4 x double> %p1, i32 2
	%v3 = call double @_Z9nextafterdd(double %s3_0, double %s3_1)
	%r3 = insertelement <4 x double> %r2, double %v3, i32 2
	ret <4 x double> %r3
}
define <4 x double> @_Z4powru2v3du2v3d(<4 x double> %p0, <4 x double> %p1) nounwind {
	%s1_0 = extractelement <4 x double> %p0, i32 0
	%s1_1 = extractelement <4 x double> %p1, i32 0
	%v1 = call double @_Z4powrdd(double %s1_0, double %s1_1)
	%r1 = insertelement <4 x double> undef, double %v1, i32 0
	%s2_0 = extractelement <4 x double> %p0, i32 1
	%s2_1 = extractelement <4 x double> %p1, i32 1
	%v2 = call double @_Z4powrdd(double %s2_0, double %s2_1)
	%r2 = insertelement <4 x double> %r1, double %v2, i32 1
	%s3_0 = extractelement <4 x double> %p0, i32 2
	%s3_1 = extractelement <4 x double> %p1, i32 2
	%v3 = call double @_Z4powrdd(double %s3_0, double %s3_1)
	%r3 = insertelement <4 x double> %r2, double %v3, i32 2
	ret <4 x double> %r3
}
define <4 x double> @_Z9remainderu2v3du2v3d(<4 x double> %p0, <4 x double> %p1) nounwind {
	%s1_0 = extractelement <4 x double> %p0, i32 0
	%s1_1 = extractelement <4 x double> %p1, i32 0
	%v1 = call double @_Z9remainderdd(double %s1_0, double %s1_1)
	%r1 = insertelement <4 x double> undef, double %v1, i32 0
	%s2_0 = extractelement <4 x double> %p0, i32 1
	%s2_1 = extractelement <4 x double> %p1, i32 1
	%v2 = call double @_Z9remainderdd(double %s2_0, double %s2_1)
	%r2 = insertelement <4 x double> %r1, double %v2, i32 1
	%s3_0 = extractelement <4 x double> %p0, i32 2
	%s3_1 = extractelement <4 x double> %p1, i32 2
	%v3 = call double @_Z9remainderdd(double %s3_0, double %s3_1)
	%r3 = insertelement <4 x double> %r2, double %v3, i32 2
	ret <4 x double> %r3
}
define <4 x double> @_Z6remquou2v3du2v3dPu2v3i(<4 x double> %p0, <4 x double> %p1, <4 x i32>* %p2) nounwind {
	%s1_0 = extractelement <4 x double> %p0, i32 0
	%s1_1 = extractelement <4 x double> %p1, i32 0
	%s1_2 = getelementptr <4 x i32>* %p2, i32 0, i32 0
	%v1 = call double @_Z6remquoddPi(double %s1_0, double %s1_1, i32* %s1_2)
	%r1 = insertelement <4 x double> undef, double %v1, i32 0
	%s2_0 = extractelement <4 x double> %p0, i32 1
	%s2_1 = extractelement <4 x double> %p1, i32 1
	%s2_2 = getelementptr <4 x i32>* %p2, i32 0, i32 1
	%v2 = call double @_Z6remquoddPi(double %s2_0, double %s2_1, i32* %s2_2)
	%r2 = insertelement <4 x double> %r1, double %v2, i32 1
	%s3_0 = extractelement <4 x double> %p0, i32 2
	%s3_1 = extractelement <4 x double> %p1, i32 2
	%s3_2 = getelementptr <4 x i32>* %p2, i32 0, i32 2
	%v3 = call double @_Z6remquoddPi(double %s3_0, double %s3_1, i32* %s3_2)
	%r3 = insertelement <4 x double> %r2, double %v3, i32 2
	ret <4 x double> %r3
}
define <4 x double> @_Z4rintu2v3d(<4 x double> %p0) nounwind {
	%s1_0 = extractelement <4 x double> %p0, i32 0
	%v1 = call double @_Z4rintd(double %s1_0)
	%r1 = insertelement <4 x double> undef, double %v1, i32 0
	%s2_0 = extractelement <4 x double> %p0, i32 1
	%v2 = call double @_Z4rintd(double %s2_0)
	%r2 = insertelement <4 x double> %r1, double %v2, i32 1
	%s3_0 = extractelement <4 x double> %p0, i32 2
	%v3 = call double @_Z4rintd(double %s3_0)
	%r3 = insertelement <4 x double> %r2, double %v3, i32 2
	ret <4 x double> %r3
}
define <4 x double> @_Z5rootnu2v3du2v3i(<4 x double> %p0, <4 x i32> %p1) nounwind {
	%s1_0 = extractelement <4 x double> %p0, i32 0
	%s1_1 = extractelement <4 x i32> %p1, i32 0
	%v1 = call double @_Z5rootndi(double %s1_0, i32 %s1_1)
	%r1 = insertelement <4 x double> undef, double %v1, i32 0
	%s2_0 = extractelement <4 x double> %p0, i32 1
	%s2_1 = extractelement <4 x i32> %p1, i32 1
	%v2 = call double @_Z5rootndi(double %s2_0, i32 %s2_1)
	%r2 = insertelement <4 x double> %r1, double %v2, i32 1
	%s3_0 = extractelement <4 x double> %p0, i32 2
	%s3_1 = extractelement <4 x i32> %p1, i32 2
	%v3 = call double @_Z5rootndi(double %s3_0, i32 %s3_1)
	%r3 = insertelement <4 x double> %r2, double %v3, i32 2
	ret <4 x double> %r3
}
define <4 x double> @_Z5roundu2v3d(<4 x double> %p0) nounwind {
	%s1_0 = extractelement <4 x double> %p0, i32 0
	%v1 = call double @_Z5roundd(double %s1_0)
	%r1 = insertelement <4 x double> undef, double %v1, i32 0
	%s2_0 = extractelement <4 x double> %p0, i32 1
	%v2 = call double @_Z5roundd(double %s2_0)
	%r2 = insertelement <4 x double> %r1, double %v2, i32 1
	%s3_0 = extractelement <4 x double> %p0, i32 2
	%v3 = call double @_Z5roundd(double %s3_0)
	%r3 = insertelement <4 x double> %r2, double %v3, i32 2
	ret <4 x double> %r3
}
define <4 x double> @_Z5rsqrtu2v3d(<4 x double> %p0) nounwind {
	%s1_0 = extractelement <4 x double> %p0, i32 0
	%v1 = call double @_Z5rsqrtd(double %s1_0)
	%r1 = insertelement <4 x double> undef, double %v1, i32 0
	%s2_0 = extractelement <4 x double> %p0, i32 1
	%v2 = call double @_Z5rsqrtd(double %s2_0)
	%r2 = insertelement <4 x double> %r1, double %v2, i32 1
	%s3_0 = extractelement <4 x double> %p0, i32 2
	%v3 = call double @_Z5rsqrtd(double %s3_0)
	%r3 = insertelement <4 x double> %r2, double %v3, i32 2
	ret <4 x double> %r3
}
define <4 x double> @_Z6sincosu2v3dPu2v3d(<4 x double> %p0, <4 x double>* %p1) nounwind {
	%s1_0 = extractelement <4 x double> %p0, i32 0
	%s1_1 = getelementptr <4 x double>* %p1, i32 0, i32 0
	%v1 = call double @_Z6sincosdPd(double %s1_0, double* %s1_1)
	%r1 = insertelement <4 x double> undef, double %v1, i32 0
	%s2_0 = extractelement <4 x double> %p0, i32 1
	%s2_1 = getelementptr <4 x double>* %p1, i32 0, i32 1
	%v2 = call double @_Z6sincosdPd(double %s2_0, double* %s2_1)
	%r2 = insertelement <4 x double> %r1, double %v2, i32 1
	%s3_0 = extractelement <4 x double> %p0, i32 2
	%s3_1 = getelementptr <4 x double>* %p1, i32 0, i32 2
	%v3 = call double @_Z6sincosdPd(double %s3_0, double* %s3_1)
	%r3 = insertelement <4 x double> %r2, double %v3, i32 2
	ret <4 x double> %r3
}
define <4 x double> @_Z4sinhu2v3d(<4 x double> %p0) nounwind {
	%s1_0 = extractelement <4 x double> %p0, i32 0
	%v1 = call double @_Z4sinhd(double %s1_0)
	%r1 = insertelement <4 x double> undef, double %v1, i32 0
	%s2_0 = extractelement <4 x double> %p0, i32 1
	%v2 = call double @_Z4sinhd(double %s2_0)
	%r2 = insertelement <4 x double> %r1, double %v2, i32 1
	%s3_0 = extractelement <4 x double> %p0, i32 2
	%v3 = call double @_Z4sinhd(double %s3_0)
	%r3 = insertelement <4 x double> %r2, double %v3, i32 2
	ret <4 x double> %r3
}
define <4 x double> @_Z5sinpiu2v3d(<4 x double> %p0) nounwind {
	%s1_0 = extractelement <4 x double> %p0, i32 0
	%v1 = call double @_Z5sinpid(double %s1_0)
	%r1 = insertelement <4 x double> undef, double %v1, i32 0
	%s2_0 = extractelement <4 x double> %p0, i32 1
	%v2 = call double @_Z5sinpid(double %s2_0)
	%r2 = insertelement <4 x double> %r1, double %v2, i32 1
	%s3_0 = extractelement <4 x double> %p0, i32 2
	%v3 = call double @_Z5sinpid(double %s3_0)
	%r3 = insertelement <4 x double> %r2, double %v3, i32 2
	ret <4 x double> %r3
}
define <4 x double> @_Z3tanu2v3d(<4 x double> %p0) nounwind {
	%s1_0 = extractelement <4 x double> %p0, i32 0
	%v1 = call double @_Z3tand(double %s1_0)
	%r1 = insertelement <4 x double> undef, double %v1, i32 0
	%s2_0 = extractelement <4 x double> %p0, i32 1
	%v2 = call double @_Z3tand(double %s2_0)
	%r2 = insertelement <4 x double> %r1, double %v2, i32 1
	%s3_0 = extractelement <4 x double> %p0, i32 2
	%v3 = call double @_Z3tand(double %s3_0)
	%r3 = insertelement <4 x double> %r2, double %v3, i32 2
	ret <4 x double> %r3
}
define <4 x double> @_Z4tanhu2v3d(<4 x double> %p0) nounwind {
	%s1_0 = extractelement <4 x double> %p0, i32 0
	%v1 = call double @_Z4tanhd(double %s1_0)
	%r1 = insertelement <4 x double> undef, double %v1, i32 0
	%s2_0 = extractelement <4 x double> %p0, i32 1
	%v2 = call double @_Z4tanhd(double %s2_0)
	%r2 = insertelement <4 x double> %r1, double %v2, i32 1
	%s3_0 = extractelement <4 x double> %p0, i32 2
	%v3 = call double @_Z4tanhd(double %s3_0)
	%r3 = insertelement <4 x double> %r2, double %v3, i32 2
	ret <4 x double> %r3
}
define <4 x double> @_Z5tanpiu2v3d(<4 x double> %p0) nounwind {
	%s1_0 = extractelement <4 x double> %p0, i32 0
	%v1 = call double @_Z5tanpid(double %s1_0)
	%r1 = insertelement <4 x double> undef, double %v1, i32 0
	%s2_0 = extractelement <4 x double> %p0, i32 1
	%v2 = call double @_Z5tanpid(double %s2_0)
	%r2 = insertelement <4 x double> %r1, double %v2, i32 1
	%s3_0 = extractelement <4 x double> %p0, i32 2
	%v3 = call double @_Z5tanpid(double %s3_0)
	%r3 = insertelement <4 x double> %r2, double %v3, i32 2
	ret <4 x double> %r3
}
define <4 x double> @_Z6tgammau2v3d(<4 x double> %p0) nounwind {
	%s1_0 = extractelement <4 x double> %p0, i32 0
	%v1 = call double @_Z6tgammad(double %s1_0)
	%r1 = insertelement <4 x double> undef, double %v1, i32 0
	%s2_0 = extractelement <4 x double> %p0, i32 1
	%v2 = call double @_Z6tgammad(double %s2_0)
	%r2 = insertelement <4 x double> %r1, double %v2, i32 1
	%s3_0 = extractelement <4 x double> %p0, i32 2
	%v3 = call double @_Z6tgammad(double %s3_0)
	%r3 = insertelement <4 x double> %r2, double %v3, i32 2
	ret <4 x double> %r3
}
define <4 x double> @_Z5truncu2v3d(<4 x double> %p0) nounwind {
	%s1_0 = extractelement <4 x double> %p0, i32 0
	%v1 = call double @_Z5truncd(double %s1_0)
	%r1 = insertelement <4 x double> undef, double %v1, i32 0
	%s2_0 = extractelement <4 x double> %p0, i32 1
	%v2 = call double @_Z5truncd(double %s2_0)
	%r2 = insertelement <4 x double> %r1, double %v2, i32 1
	%s3_0 = extractelement <4 x double> %p0, i32 2
	%v3 = call double @_Z5truncd(double %s3_0)
	%r3 = insertelement <4 x double> %r2, double %v3, i32 2
	ret <4 x double> %r3
}
define <4 x double> @_Z8half_cosu2v3d(<4 x double> %p0) nounwind {
	%s1_0 = extractelement <4 x double> %p0, i32 0
	%v1 = call double @_Z8half_cosd(double %s1_0)
	%r1 = insertelement <4 x double> undef, double %v1, i32 0
	%s2_0 = extractelement <4 x double> %p0, i32 1
	%v2 = call double @_Z8half_cosd(double %s2_0)
	%r2 = insertelement <4 x double> %r1, double %v2, i32 1
	%s3_0 = extractelement <4 x double> %p0, i32 2
	%v3 = call double @_Z8half_cosd(double %s3_0)
	%r3 = insertelement <4 x double> %r2, double %v3, i32 2
	ret <4 x double> %r3
}
define <4 x double> @_Z11half_divideu2v3du2v3d(<4 x double> %p0, <4 x double> %p1) nounwind {
	%s1_0 = extractelement <4 x double> %p0, i32 0
	%s1_1 = extractelement <4 x double> %p1, i32 0
	%v1 = call double @_Z11half_dividedd(double %s1_0, double %s1_1)
	%r1 = insertelement <4 x double> undef, double %v1, i32 0
	%s2_0 = extractelement <4 x double> %p0, i32 1
	%s2_1 = extractelement <4 x double> %p1, i32 1
	%v2 = call double @_Z11half_dividedd(double %s2_0, double %s2_1)
	%r2 = insertelement <4 x double> %r1, double %v2, i32 1
	%s3_0 = extractelement <4 x double> %p0, i32 2
	%s3_1 = extractelement <4 x double> %p1, i32 2
	%v3 = call double @_Z11half_dividedd(double %s3_0, double %s3_1)
	%r3 = insertelement <4 x double> %r2, double %v3, i32 2
	ret <4 x double> %r3
}
define <4 x double> @_Z8half_expu2v3d(<4 x double> %p0) nounwind {
	%s1_0 = extractelement <4 x double> %p0, i32 0
	%v1 = call double @_Z8half_expd(double %s1_0)
	%r1 = insertelement <4 x double> undef, double %v1, i32 0
	%s2_0 = extractelement <4 x double> %p0, i32 1
	%v2 = call double @_Z8half_expd(double %s2_0)
	%r2 = insertelement <4 x double> %r1, double %v2, i32 1
	%s3_0 = extractelement <4 x double> %p0, i32 2
	%v3 = call double @_Z8half_expd(double %s3_0)
	%r3 = insertelement <4 x double> %r2, double %v3, i32 2
	ret <4 x double> %r3
}
define <4 x double> @_Z9half_exp2u2v3d(<4 x double> %p0) nounwind {
	%s1_0 = extractelement <4 x double> %p0, i32 0
	%v1 = call double @_Z9half_exp2d(double %s1_0)
	%r1 = insertelement <4 x double> undef, double %v1, i32 0
	%s2_0 = extractelement <4 x double> %p0, i32 1
	%v2 = call double @_Z9half_exp2d(double %s2_0)
	%r2 = insertelement <4 x double> %r1, double %v2, i32 1
	%s3_0 = extractelement <4 x double> %p0, i32 2
	%v3 = call double @_Z9half_exp2d(double %s3_0)
	%r3 = insertelement <4 x double> %r2, double %v3, i32 2
	ret <4 x double> %r3
}
define <4 x double> @_Z10half_exp10u2v3d(<4 x double> %p0) nounwind {
	%s1_0 = extractelement <4 x double> %p0, i32 0
	%v1 = call double @_Z10half_exp10d(double %s1_0)
	%r1 = insertelement <4 x double> undef, double %v1, i32 0
	%s2_0 = extractelement <4 x double> %p0, i32 1
	%v2 = call double @_Z10half_exp10d(double %s2_0)
	%r2 = insertelement <4 x double> %r1, double %v2, i32 1
	%s3_0 = extractelement <4 x double> %p0, i32 2
	%v3 = call double @_Z10half_exp10d(double %s3_0)
	%r3 = insertelement <4 x double> %r2, double %v3, i32 2
	ret <4 x double> %r3
}
define <4 x double> @_Z8half_logu2v3d(<4 x double> %p0) nounwind {
	%s1_0 = extractelement <4 x double> %p0, i32 0
	%v1 = call double @_Z8half_logd(double %s1_0)
	%r1 = insertelement <4 x double> undef, double %v1, i32 0
	%s2_0 = extractelement <4 x double> %p0, i32 1
	%v2 = call double @_Z8half_logd(double %s2_0)
	%r2 = insertelement <4 x double> %r1, double %v2, i32 1
	%s3_0 = extractelement <4 x double> %p0, i32 2
	%v3 = call double @_Z8half_logd(double %s3_0)
	%r3 = insertelement <4 x double> %r2, double %v3, i32 2
	ret <4 x double> %r3
}
define <4 x double> @_Z9half_log2u2v3d(<4 x double> %p0) nounwind {
	%s1_0 = extractelement <4 x double> %p0, i32 0
	%v1 = call double @_Z9half_log2d(double %s1_0)
	%r1 = insertelement <4 x double> undef, double %v1, i32 0
	%s2_0 = extractelement <4 x double> %p0, i32 1
	%v2 = call double @_Z9half_log2d(double %s2_0)
	%r2 = insertelement <4 x double> %r1, double %v2, i32 1
	%s3_0 = extractelement <4 x double> %p0, i32 2
	%v3 = call double @_Z9half_log2d(double %s3_0)
	%r3 = insertelement <4 x double> %r2, double %v3, i32 2
	ret <4 x double> %r3
}
define <4 x double> @_Z10half_log10u2v3d(<4 x double> %p0) nounwind {
	%s1_0 = extractelement <4 x double> %p0, i32 0
	%v1 = call double @_Z10half_log10d(double %s1_0)
	%r1 = insertelement <4 x double> undef, double %v1, i32 0
	%s2_0 = extractelement <4 x double> %p0, i32 1
	%v2 = call double @_Z10half_log10d(double %s2_0)
	%r2 = insertelement <4 x double> %r1, double %v2, i32 1
	%s3_0 = extractelement <4 x double> %p0, i32 2
	%v3 = call double @_Z10half_log10d(double %s3_0)
	%r3 = insertelement <4 x double> %r2, double %v3, i32 2
	ret <4 x double> %r3
}
define <4 x double> @_Z9half_powru2v3du2v3d(<4 x double> %p0, <4 x double> %p1) nounwind {
	%s1_0 = extractelement <4 x double> %p0, i32 0
	%s1_1 = extractelement <4 x double> %p1, i32 0
	%v1 = call double @_Z9half_powrdd(double %s1_0, double %s1_1)
	%r1 = insertelement <4 x double> undef, double %v1, i32 0
	%s2_0 = extractelement <4 x double> %p0, i32 1
	%s2_1 = extractelement <4 x double> %p1, i32 1
	%v2 = call double @_Z9half_powrdd(double %s2_0, double %s2_1)
	%r2 = insertelement <4 x double> %r1, double %v2, i32 1
	%s3_0 = extractelement <4 x double> %p0, i32 2
	%s3_1 = extractelement <4 x double> %p1, i32 2
	%v3 = call double @_Z9half_powrdd(double %s3_0, double %s3_1)
	%r3 = insertelement <4 x double> %r2, double %v3, i32 2
	ret <4 x double> %r3
}
define <4 x double> @_Z10half_recipu2v3d(<4 x double> %p0) nounwind {
	%s1_0 = extractelement <4 x double> %p0, i32 0
	%v1 = call double @_Z10half_recipd(double %s1_0)
	%r1 = insertelement <4 x double> undef, double %v1, i32 0
	%s2_0 = extractelement <4 x double> %p0, i32 1
	%v2 = call double @_Z10half_recipd(double %s2_0)
	%r2 = insertelement <4 x double> %r1, double %v2, i32 1
	%s3_0 = extractelement <4 x double> %p0, i32 2
	%v3 = call double @_Z10half_recipd(double %s3_0)
	%r3 = insertelement <4 x double> %r2, double %v3, i32 2
	ret <4 x double> %r3
}
define <4 x double> @_Z10half_rsqrtu2v3d(<4 x double> %p0) nounwind {
	%s1_0 = extractelement <4 x double> %p0, i32 0
	%v1 = call double @_Z10half_rsqrtd(double %s1_0)
	%r1 = insertelement <4 x double> undef, double %v1, i32 0
	%s2_0 = extractelement <4 x double> %p0, i32 1
	%v2 = call double @_Z10half_rsqrtd(double %s2_0)
	%r2 = insertelement <4 x double> %r1, double %v2, i32 1
	%s3_0 = extractelement <4 x double> %p0, i32 2
	%v3 = call double @_Z10half_rsqrtd(double %s3_0)
	%r3 = insertelement <4 x double> %r2, double %v3, i32 2
	ret <4 x double> %r3
}
define <4 x double> @_Z8half_sinu2v3d(<4 x double> %p0) nounwind {
	%s1_0 = extractelement <4 x double> %p0, i32 0
	%v1 = call double @_Z8half_sind(double %s1_0)
	%r1 = insertelement <4 x double> undef, double %v1, i32 0
	%s2_0 = extractelement <4 x double> %p0, i32 1
	%v2 = call double @_Z8half_sind(double %s2_0)
	%r2 = insertelement <4 x double> %r1, double %v2, i32 1
	%s3_0 = extractelement <4 x double> %p0, i32 2
	%v3 = call double @_Z8half_sind(double %s3_0)
	%r3 = insertelement <4 x double> %r2, double %v3, i32 2
	ret <4 x double> %r3
}
define <4 x double> @_Z9half_sqrtu2v3d(<4 x double> %p0) nounwind {
	%s1_0 = extractelement <4 x double> %p0, i32 0
	%v1 = call double @_Z9half_sqrtd(double %s1_0)
	%r1 = insertelement <4 x double> undef, double %v1, i32 0
	%s2_0 = extractelement <4 x double> %p0, i32 1
	%v2 = call double @_Z9half_sqrtd(double %s2_0)
	%r2 = insertelement <4 x double> %r1, double %v2, i32 1
	%s3_0 = extractelement <4 x double> %p0, i32 2
	%v3 = call double @_Z9half_sqrtd(double %s3_0)
	%r3 = insertelement <4 x double> %r2, double %v3, i32 2
	ret <4 x double> %r3
}
define <4 x double> @_Z8half_tanu2v3d(<4 x double> %p0) nounwind {
	%s1_0 = extractelement <4 x double> %p0, i32 0
	%v1 = call double @_Z8half_tand(double %s1_0)
	%r1 = insertelement <4 x double> undef, double %v1, i32 0
	%s2_0 = extractelement <4 x double> %p0, i32 1
	%v2 = call double @_Z8half_tand(double %s2_0)
	%r2 = insertelement <4 x double> %r1, double %v2, i32 1
	%s3_0 = extractelement <4 x double> %p0, i32 2
	%v3 = call double @_Z8half_tand(double %s3_0)
	%r3 = insertelement <4 x double> %r2, double %v3, i32 2
	ret <4 x double> %r3
}
define <4 x double> @_Z11native_exp2u2v3d(<4 x double> %p0) nounwind {
	%s1_0 = extractelement <4 x double> %p0, i32 0
	%v1 = call double @_Z11native_exp2d(double %s1_0)
	%r1 = insertelement <4 x double> undef, double %v1, i32 0
	%s2_0 = extractelement <4 x double> %p0, i32 1
	%v2 = call double @_Z11native_exp2d(double %s2_0)
	%r2 = insertelement <4 x double> %r1, double %v2, i32 1
	%s3_0 = extractelement <4 x double> %p0, i32 2
	%v3 = call double @_Z11native_exp2d(double %s3_0)
	%r3 = insertelement <4 x double> %r2, double %v3, i32 2
	ret <4 x double> %r3
}
define <4 x double> @_Z12native_exp10u2v3d(<4 x double> %p0) nounwind {
	%s1_0 = extractelement <4 x double> %p0, i32 0
	%v1 = call double @_Z12native_exp10d(double %s1_0)
	%r1 = insertelement <4 x double> undef, double %v1, i32 0
	%s2_0 = extractelement <4 x double> %p0, i32 1
	%v2 = call double @_Z12native_exp10d(double %s2_0)
	%r2 = insertelement <4 x double> %r1, double %v2, i32 1
	%s3_0 = extractelement <4 x double> %p0, i32 2
	%v3 = call double @_Z12native_exp10d(double %s3_0)
	%r3 = insertelement <4 x double> %r2, double %v3, i32 2
	ret <4 x double> %r3
}
define <4 x double> @_Z11native_log2u2v3d(<4 x double> %p0) nounwind {
	%s1_0 = extractelement <4 x double> %p0, i32 0
	%v1 = call double @_Z11native_log2d(double %s1_0)
	%r1 = insertelement <4 x double> undef, double %v1, i32 0
	%s2_0 = extractelement <4 x double> %p0, i32 1
	%v2 = call double @_Z11native_log2d(double %s2_0)
	%r2 = insertelement <4 x double> %r1, double %v2, i32 1
	%s3_0 = extractelement <4 x double> %p0, i32 2
	%v3 = call double @_Z11native_log2d(double %s3_0)
	%r3 = insertelement <4 x double> %r2, double %v3, i32 2
	ret <4 x double> %r3
}
define <4 x double> @_Z12native_log10u2v3d(<4 x double> %p0) nounwind {
	%s1_0 = extractelement <4 x double> %p0, i32 0
	%v1 = call double @_Z12native_log10d(double %s1_0)
	%r1 = insertelement <4 x double> undef, double %v1, i32 0
	%s2_0 = extractelement <4 x double> %p0, i32 1
	%v2 = call double @_Z12native_log10d(double %s2_0)
	%r2 = insertelement <4 x double> %r1, double %v2, i32 1
	%s3_0 = extractelement <4 x double> %p0, i32 2
	%v3 = call double @_Z12native_log10d(double %s3_0)
	%r3 = insertelement <4 x double> %r2, double %v3, i32 2
	ret <4 x double> %r3
}
define <4 x double> @_Z12native_recipu2v3d(<4 x double> %p0) nounwind {
	%s1_0 = extractelement <4 x double> %p0, i32 0
	%v1 = call double @_Z12native_recipd(double %s1_0)
	%r1 = insertelement <4 x double> undef, double %v1, i32 0
	%s2_0 = extractelement <4 x double> %p0, i32 1
	%v2 = call double @_Z12native_recipd(double %s2_0)
	%r2 = insertelement <4 x double> %r1, double %v2, i32 1
	%s3_0 = extractelement <4 x double> %p0, i32 2
	%v3 = call double @_Z12native_recipd(double %s3_0)
	%r3 = insertelement <4 x double> %r2, double %v3, i32 2
	ret <4 x double> %r3
}
define <4 x double> @_Z12native_rsqrtu2v3d(<4 x double> %p0) nounwind {
	%s1_0 = extractelement <4 x double> %p0, i32 0
	%v1 = call double @_Z12native_rsqrtd(double %s1_0)
	%r1 = insertelement <4 x double> undef, double %v1, i32 0
	%s2_0 = extractelement <4 x double> %p0, i32 1
	%v2 = call double @_Z12native_rsqrtd(double %s2_0)
	%r2 = insertelement <4 x double> %r1, double %v2, i32 1
	%s3_0 = extractelement <4 x double> %p0, i32 2
	%v3 = call double @_Z12native_rsqrtd(double %s3_0)
	%r3 = insertelement <4 x double> %r2, double %v3, i32 2
	ret <4 x double> %r3
}
define <4 x double> @_Z11native_sqrtu2v3d(<4 x double> %p0) nounwind {
	%s1_0 = extractelement <4 x double> %p0, i32 0
	%v1 = call double @_Z11native_sqrtd(double %s1_0)
	%r1 = insertelement <4 x double> undef, double %v1, i32 0
	%s2_0 = extractelement <4 x double> %p0, i32 1
	%v2 = call double @_Z11native_sqrtd(double %s2_0)
	%r2 = insertelement <4 x double> %r1, double %v2, i32 1
	%s3_0 = extractelement <4 x double> %p0, i32 2
	%v3 = call double @_Z11native_sqrtd(double %s3_0)
	%r3 = insertelement <4 x double> %r2, double %v3, i32 2
	ret <4 x double> %r3
}
define <4 x double> @_Z10native_sinu2v3d(<4 x double> %p0) nounwind {
	%s1_0 = extractelement <4 x double> %p0, i32 0
	%v1 = call double @_Z10native_sind(double %s1_0)
	%r1 = insertelement <4 x double> undef, double %v1, i32 0
	%s2_0 = extractelement <4 x double> %p0, i32 1
	%v2 = call double @_Z10native_sind(double %s2_0)
	%r2 = insertelement <4 x double> %r1, double %v2, i32 1
	%s3_0 = extractelement <4 x double> %p0, i32 2
	%v3 = call double @_Z10native_sind(double %s3_0)
	%r3 = insertelement <4 x double> %r2, double %v3, i32 2
	ret <4 x double> %r3
}
define <4 x double> @_Z10native_cosu2v3d(<4 x double> %p0) nounwind {
	%s1_0 = extractelement <4 x double> %p0, i32 0
	%v1 = call double @_Z10native_cosd(double %s1_0)
	%r1 = insertelement <4 x double> undef, double %v1, i32 0
	%s2_0 = extractelement <4 x double> %p0, i32 1
	%v2 = call double @_Z10native_cosd(double %s2_0)
	%r2 = insertelement <4 x double> %r1, double %v2, i32 1
	%s3_0 = extractelement <4 x double> %p0, i32 2
	%v3 = call double @_Z10native_cosd(double %s3_0)
	%r3 = insertelement <4 x double> %r2, double %v3, i32 2
	ret <4 x double> %r3
}
define <4 x double> @_Z10native_expu2v3d(<4 x double> %p0) nounwind {
	%s1_0 = extractelement <4 x double> %p0, i32 0
	%v1 = call double @_Z10native_expd(double %s1_0)
	%r1 = insertelement <4 x double> undef, double %v1, i32 0
	%s2_0 = extractelement <4 x double> %p0, i32 1
	%v2 = call double @_Z10native_expd(double %s2_0)
	%r2 = insertelement <4 x double> %r1, double %v2, i32 1
	%s3_0 = extractelement <4 x double> %p0, i32 2
	%v3 = call double @_Z10native_expd(double %s3_0)
	%r3 = insertelement <4 x double> %r2, double %v3, i32 2
	ret <4 x double> %r3
}
define <4 x double> @_Z10native_logu2v3d(<4 x double> %p0) nounwind {
	%s1_0 = extractelement <4 x double> %p0, i32 0
	%v1 = call double @_Z10native_logd(double %s1_0)
	%r1 = insertelement <4 x double> undef, double %v1, i32 0
	%s2_0 = extractelement <4 x double> %p0, i32 1
	%v2 = call double @_Z10native_logd(double %s2_0)
	%r2 = insertelement <4 x double> %r1, double %v2, i32 1
	%s3_0 = extractelement <4 x double> %p0, i32 2
	%v3 = call double @_Z10native_logd(double %s3_0)
	%r3 = insertelement <4 x double> %r2, double %v3, i32 2
	ret <4 x double> %r3
}
define <4 x double> @_Z10native_tanu2v3d(<4 x double> %p0) nounwind {
	%s1_0 = extractelement <4 x double> %p0, i32 0
	%v1 = call double @_Z10native_tand(double %s1_0)
	%r1 = insertelement <4 x double> undef, double %v1, i32 0
	%s2_0 = extractelement <4 x double> %p0, i32 1
	%v2 = call double @_Z10native_tand(double %s2_0)
	%r2 = insertelement <4 x double> %r1, double %v2, i32 1
	%s3_0 = extractelement <4 x double> %p0, i32 2
	%v3 = call double @_Z10native_tand(double %s3_0)
	%r3 = insertelement <4 x double> %r2, double %v3, i32 2
	ret <4 x double> %r3
}
define <4 x double> @_Z13native_divideu2v3du2v3d(<4 x double> %p0, <4 x double> %p1) nounwind {
	%s1_0 = extractelement <4 x double> %p0, i32 0
	%s1_1 = extractelement <4 x double> %p1, i32 0
	%v1 = call double @_Z13native_dividedd(double %s1_0, double %s1_1)
	%r1 = insertelement <4 x double> undef, double %v1, i32 0
	%s2_0 = extractelement <4 x double> %p0, i32 1
	%s2_1 = extractelement <4 x double> %p1, i32 1
	%v2 = call double @_Z13native_dividedd(double %s2_0, double %s2_1)
	%r2 = insertelement <4 x double> %r1, double %v2, i32 1
	%s3_0 = extractelement <4 x double> %p0, i32 2
	%s3_1 = extractelement <4 x double> %p1, i32 2
	%v3 = call double @_Z13native_dividedd(double %s3_0, double %s3_1)
	%r3 = insertelement <4 x double> %r2, double %v3, i32 2
	ret <4 x double> %r3
}
define <4 x double> @_Z11native_powru2v3du2v3d(<4 x double> %p0, <4 x double> %p1) nounwind {
	%s1_0 = extractelement <4 x double> %p0, i32 0
	%s1_1 = extractelement <4 x double> %p1, i32 0
	%v1 = call double @_Z11native_powrdd(double %s1_0, double %s1_1)
	%r1 = insertelement <4 x double> undef, double %v1, i32 0
	%s2_0 = extractelement <4 x double> %p0, i32 1
	%s2_1 = extractelement <4 x double> %p1, i32 1
	%v2 = call double @_Z11native_powrdd(double %s2_0, double %s2_1)
	%r2 = insertelement <4 x double> %r1, double %v2, i32 1
	%s3_0 = extractelement <4 x double> %p0, i32 2
	%s3_1 = extractelement <4 x double> %p1, i32 2
	%v3 = call double @_Z11native_powrdd(double %s3_0, double %s3_1)
	%r3 = insertelement <4 x double> %r2, double %v3, i32 2
	ret <4 x double> %r3
}
define <4 x double> @_Z12native_ldexpu2v3du2v3i(<4 x double> %p0, <4 x i32> %p1) nounwind {
	%s1_0 = extractelement <4 x double> %p0, i32 0
	%s1_1 = extractelement <4 x i32> %p1, i32 0
	%v1 = call double @_Z12native_ldexpdi(double %s1_0, i32 %s1_1)
	%r1 = insertelement <4 x double> undef, double %v1, i32 0
	%s2_0 = extractelement <4 x double> %p0, i32 1
	%s2_1 = extractelement <4 x i32> %p1, i32 1
	%v2 = call double @_Z12native_ldexpdi(double %s2_0, i32 %s2_1)
	%r2 = insertelement <4 x double> %r1, double %v2, i32 1
	%s3_0 = extractelement <4 x double> %p0, i32 2
	%s3_1 = extractelement <4 x i32> %p1, i32 2
	%v3 = call double @_Z12native_ldexpdi(double %s3_0, i32 %s3_1)
	%r3 = insertelement <4 x double> %r2, double %v3, i32 2
	ret <4 x double> %r3
}
define <4 x float> @_Z4acosu2v4f(<4 x float> %p0) nounwind {
	%s1_0 = extractelement <4 x float> %p0, i32 0
	%v1 = call float @_Z4acosf(float %s1_0)
	%r1 = insertelement <4 x float> undef, float %v1, i32 0
	%s2_0 = extractelement <4 x float> %p0, i32 1
	%v2 = call float @_Z4acosf(float %s2_0)
	%r2 = insertelement <4 x float> %r1, float %v2, i32 1
	%s3_0 = extractelement <4 x float> %p0, i32 2
	%v3 = call float @_Z4acosf(float %s3_0)
	%r3 = insertelement <4 x float> %r2, float %v3, i32 2
	%s4_0 = extractelement <4 x float> %p0, i32 3
	%v4 = call float @_Z4acosf(float %s4_0)
	%r4 = insertelement <4 x float> %r3, float %v4, i32 3
	ret <4 x float> %r4
}
define <4 x float> @_Z5acoshu2v4f(<4 x float> %p0) nounwind {
	%s1_0 = extractelement <4 x float> %p0, i32 0
	%v1 = call float @_Z5acoshf(float %s1_0)
	%r1 = insertelement <4 x float> undef, float %v1, i32 0
	%s2_0 = extractelement <4 x float> %p0, i32 1
	%v2 = call float @_Z5acoshf(float %s2_0)
	%r2 = insertelement <4 x float> %r1, float %v2, i32 1
	%s3_0 = extractelement <4 x float> %p0, i32 2
	%v3 = call float @_Z5acoshf(float %s3_0)
	%r3 = insertelement <4 x float> %r2, float %v3, i32 2
	%s4_0 = extractelement <4 x float> %p0, i32 3
	%v4 = call float @_Z5acoshf(float %s4_0)
	%r4 = insertelement <4 x float> %r3, float %v4, i32 3
	ret <4 x float> %r4
}
define <4 x float> @_Z6acospiu2v4f(<4 x float> %p0) nounwind {
	%s1_0 = extractelement <4 x float> %p0, i32 0
	%v1 = call float @_Z6acospif(float %s1_0)
	%r1 = insertelement <4 x float> undef, float %v1, i32 0
	%s2_0 = extractelement <4 x float> %p0, i32 1
	%v2 = call float @_Z6acospif(float %s2_0)
	%r2 = insertelement <4 x float> %r1, float %v2, i32 1
	%s3_0 = extractelement <4 x float> %p0, i32 2
	%v3 = call float @_Z6acospif(float %s3_0)
	%r3 = insertelement <4 x float> %r2, float %v3, i32 2
	%s4_0 = extractelement <4 x float> %p0, i32 3
	%v4 = call float @_Z6acospif(float %s4_0)
	%r4 = insertelement <4 x float> %r3, float %v4, i32 3
	ret <4 x float> %r4
}
define <4 x float> @_Z4asinu2v4f(<4 x float> %p0) nounwind {
	%s1_0 = extractelement <4 x float> %p0, i32 0
	%v1 = call float @_Z4asinf(float %s1_0)
	%r1 = insertelement <4 x float> undef, float %v1, i32 0
	%s2_0 = extractelement <4 x float> %p0, i32 1
	%v2 = call float @_Z4asinf(float %s2_0)
	%r2 = insertelement <4 x float> %r1, float %v2, i32 1
	%s3_0 = extractelement <4 x float> %p0, i32 2
	%v3 = call float @_Z4asinf(float %s3_0)
	%r3 = insertelement <4 x float> %r2, float %v3, i32 2
	%s4_0 = extractelement <4 x float> %p0, i32 3
	%v4 = call float @_Z4asinf(float %s4_0)
	%r4 = insertelement <4 x float> %r3, float %v4, i32 3
	ret <4 x float> %r4
}
define <4 x float> @_Z5asinhu2v4f(<4 x float> %p0) nounwind {
	%s1_0 = extractelement <4 x float> %p0, i32 0
	%v1 = call float @_Z5asinhf(float %s1_0)
	%r1 = insertelement <4 x float> undef, float %v1, i32 0
	%s2_0 = extractelement <4 x float> %p0, i32 1
	%v2 = call float @_Z5asinhf(float %s2_0)
	%r2 = insertelement <4 x float> %r1, float %v2, i32 1
	%s3_0 = extractelement <4 x float> %p0, i32 2
	%v3 = call float @_Z5asinhf(float %s3_0)
	%r3 = insertelement <4 x float> %r2, float %v3, i32 2
	%s4_0 = extractelement <4 x float> %p0, i32 3
	%v4 = call float @_Z5asinhf(float %s4_0)
	%r4 = insertelement <4 x float> %r3, float %v4, i32 3
	ret <4 x float> %r4
}
define <4 x float> @_Z6asinpiu2v4f(<4 x float> %p0) nounwind {
	%s1_0 = extractelement <4 x float> %p0, i32 0
	%v1 = call float @_Z6asinpif(float %s1_0)
	%r1 = insertelement <4 x float> undef, float %v1, i32 0
	%s2_0 = extractelement <4 x float> %p0, i32 1
	%v2 = call float @_Z6asinpif(float %s2_0)
	%r2 = insertelement <4 x float> %r1, float %v2, i32 1
	%s3_0 = extractelement <4 x float> %p0, i32 2
	%v3 = call float @_Z6asinpif(float %s3_0)
	%r3 = insertelement <4 x float> %r2, float %v3, i32 2
	%s4_0 = extractelement <4 x float> %p0, i32 3
	%v4 = call float @_Z6asinpif(float %s4_0)
	%r4 = insertelement <4 x float> %r3, float %v4, i32 3
	ret <4 x float> %r4
}
define <4 x float> @_Z4atanu2v4f(<4 x float> %p0) nounwind {
	%s1_0 = extractelement <4 x float> %p0, i32 0
	%v1 = call float @_Z4atanf(float %s1_0)
	%r1 = insertelement <4 x float> undef, float %v1, i32 0
	%s2_0 = extractelement <4 x float> %p0, i32 1
	%v2 = call float @_Z4atanf(float %s2_0)
	%r2 = insertelement <4 x float> %r1, float %v2, i32 1
	%s3_0 = extractelement <4 x float> %p0, i32 2
	%v3 = call float @_Z4atanf(float %s3_0)
	%r3 = insertelement <4 x float> %r2, float %v3, i32 2
	%s4_0 = extractelement <4 x float> %p0, i32 3
	%v4 = call float @_Z4atanf(float %s4_0)
	%r4 = insertelement <4 x float> %r3, float %v4, i32 3
	ret <4 x float> %r4
}
define <4 x float> @_Z5atan2u2v4fu2v4f(<4 x float> %p0, <4 x float> %p1) nounwind {
	%s1_0 = extractelement <4 x float> %p0, i32 0
	%s1_1 = extractelement <4 x float> %p1, i32 0
	%v1 = call float @_Z5atan2ff(float %s1_0, float %s1_1)
	%r1 = insertelement <4 x float> undef, float %v1, i32 0
	%s2_0 = extractelement <4 x float> %p0, i32 1
	%s2_1 = extractelement <4 x float> %p1, i32 1
	%v2 = call float @_Z5atan2ff(float %s2_0, float %s2_1)
	%r2 = insertelement <4 x float> %r1, float %v2, i32 1
	%s3_0 = extractelement <4 x float> %p0, i32 2
	%s3_1 = extractelement <4 x float> %p1, i32 2
	%v3 = call float @_Z5atan2ff(float %s3_0, float %s3_1)
	%r3 = insertelement <4 x float> %r2, float %v3, i32 2
	%s4_0 = extractelement <4 x float> %p0, i32 3
	%s4_1 = extractelement <4 x float> %p1, i32 3
	%v4 = call float @_Z5atan2ff(float %s4_0, float %s4_1)
	%r4 = insertelement <4 x float> %r3, float %v4, i32 3
	ret <4 x float> %r4
}
define <4 x float> @_Z5atanhu2v4f(<4 x float> %p0) nounwind {
	%s1_0 = extractelement <4 x float> %p0, i32 0
	%v1 = call float @_Z5atanhf(float %s1_0)
	%r1 = insertelement <4 x float> undef, float %v1, i32 0
	%s2_0 = extractelement <4 x float> %p0, i32 1
	%v2 = call float @_Z5atanhf(float %s2_0)
	%r2 = insertelement <4 x float> %r1, float %v2, i32 1
	%s3_0 = extractelement <4 x float> %p0, i32 2
	%v3 = call float @_Z5atanhf(float %s3_0)
	%r3 = insertelement <4 x float> %r2, float %v3, i32 2
	%s4_0 = extractelement <4 x float> %p0, i32 3
	%v4 = call float @_Z5atanhf(float %s4_0)
	%r4 = insertelement <4 x float> %r3, float %v4, i32 3
	ret <4 x float> %r4
}
define <4 x float> @_Z6atanpiu2v4f(<4 x float> %p0) nounwind {
	%s1_0 = extractelement <4 x float> %p0, i32 0
	%v1 = call float @_Z6atanpif(float %s1_0)
	%r1 = insertelement <4 x float> undef, float %v1, i32 0
	%s2_0 = extractelement <4 x float> %p0, i32 1
	%v2 = call float @_Z6atanpif(float %s2_0)
	%r2 = insertelement <4 x float> %r1, float %v2, i32 1
	%s3_0 = extractelement <4 x float> %p0, i32 2
	%v3 = call float @_Z6atanpif(float %s3_0)
	%r3 = insertelement <4 x float> %r2, float %v3, i32 2
	%s4_0 = extractelement <4 x float> %p0, i32 3
	%v4 = call float @_Z6atanpif(float %s4_0)
	%r4 = insertelement <4 x float> %r3, float %v4, i32 3
	ret <4 x float> %r4
}
define <4 x float> @_Z7atan2piu2v4fu2v4f(<4 x float> %p0, <4 x float> %p1) nounwind {
	%s1_0 = extractelement <4 x float> %p0, i32 0
	%s1_1 = extractelement <4 x float> %p1, i32 0
	%v1 = call float @_Z7atan2piff(float %s1_0, float %s1_1)
	%r1 = insertelement <4 x float> undef, float %v1, i32 0
	%s2_0 = extractelement <4 x float> %p0, i32 1
	%s2_1 = extractelement <4 x float> %p1, i32 1
	%v2 = call float @_Z7atan2piff(float %s2_0, float %s2_1)
	%r2 = insertelement <4 x float> %r1, float %v2, i32 1
	%s3_0 = extractelement <4 x float> %p0, i32 2
	%s3_1 = extractelement <4 x float> %p1, i32 2
	%v3 = call float @_Z7atan2piff(float %s3_0, float %s3_1)
	%r3 = insertelement <4 x float> %r2, float %v3, i32 2
	%s4_0 = extractelement <4 x float> %p0, i32 3
	%s4_1 = extractelement <4 x float> %p1, i32 3
	%v4 = call float @_Z7atan2piff(float %s4_0, float %s4_1)
	%r4 = insertelement <4 x float> %r3, float %v4, i32 3
	ret <4 x float> %r4
}
define <4 x float> @_Z4cbrtu2v4f(<4 x float> %p0) nounwind {
	%s1_0 = extractelement <4 x float> %p0, i32 0
	%v1 = call float @_Z4cbrtf(float %s1_0)
	%r1 = insertelement <4 x float> undef, float %v1, i32 0
	%s2_0 = extractelement <4 x float> %p0, i32 1
	%v2 = call float @_Z4cbrtf(float %s2_0)
	%r2 = insertelement <4 x float> %r1, float %v2, i32 1
	%s3_0 = extractelement <4 x float> %p0, i32 2
	%v3 = call float @_Z4cbrtf(float %s3_0)
	%r3 = insertelement <4 x float> %r2, float %v3, i32 2
	%s4_0 = extractelement <4 x float> %p0, i32 3
	%v4 = call float @_Z4cbrtf(float %s4_0)
	%r4 = insertelement <4 x float> %r3, float %v4, i32 3
	ret <4 x float> %r4
}
define <4 x float> @_Z4ceilu2v4f(<4 x float> %p0) nounwind {
	%s1_0 = extractelement <4 x float> %p0, i32 0
	%v1 = call float @_Z4ceilf(float %s1_0)
	%r1 = insertelement <4 x float> undef, float %v1, i32 0
	%s2_0 = extractelement <4 x float> %p0, i32 1
	%v2 = call float @_Z4ceilf(float %s2_0)
	%r2 = insertelement <4 x float> %r1, float %v2, i32 1
	%s3_0 = extractelement <4 x float> %p0, i32 2
	%v3 = call float @_Z4ceilf(float %s3_0)
	%r3 = insertelement <4 x float> %r2, float %v3, i32 2
	%s4_0 = extractelement <4 x float> %p0, i32 3
	%v4 = call float @_Z4ceilf(float %s4_0)
	%r4 = insertelement <4 x float> %r3, float %v4, i32 3
	ret <4 x float> %r4
}
define <4 x float> @_Z8copysignu2v4fu2v4f(<4 x float> %p0, <4 x float> %p1) nounwind {
	%s1_0 = extractelement <4 x float> %p0, i32 0
	%s1_1 = extractelement <4 x float> %p1, i32 0
	%v1 = call float @_Z8copysignff(float %s1_0, float %s1_1)
	%r1 = insertelement <4 x float> undef, float %v1, i32 0
	%s2_0 = extractelement <4 x float> %p0, i32 1
	%s2_1 = extractelement <4 x float> %p1, i32 1
	%v2 = call float @_Z8copysignff(float %s2_0, float %s2_1)
	%r2 = insertelement <4 x float> %r1, float %v2, i32 1
	%s3_0 = extractelement <4 x float> %p0, i32 2
	%s3_1 = extractelement <4 x float> %p1, i32 2
	%v3 = call float @_Z8copysignff(float %s3_0, float %s3_1)
	%r3 = insertelement <4 x float> %r2, float %v3, i32 2
	%s4_0 = extractelement <4 x float> %p0, i32 3
	%s4_1 = extractelement <4 x float> %p1, i32 3
	%v4 = call float @_Z8copysignff(float %s4_0, float %s4_1)
	%r4 = insertelement <4 x float> %r3, float %v4, i32 3
	ret <4 x float> %r4
}
define <4 x float> @_Z4coshu2v4f(<4 x float> %p0) nounwind {
	%s1_0 = extractelement <4 x float> %p0, i32 0
	%v1 = call float @_Z4coshf(float %s1_0)
	%r1 = insertelement <4 x float> undef, float %v1, i32 0
	%s2_0 = extractelement <4 x float> %p0, i32 1
	%v2 = call float @_Z4coshf(float %s2_0)
	%r2 = insertelement <4 x float> %r1, float %v2, i32 1
	%s3_0 = extractelement <4 x float> %p0, i32 2
	%v3 = call float @_Z4coshf(float %s3_0)
	%r3 = insertelement <4 x float> %r2, float %v3, i32 2
	%s4_0 = extractelement <4 x float> %p0, i32 3
	%v4 = call float @_Z4coshf(float %s4_0)
	%r4 = insertelement <4 x float> %r3, float %v4, i32 3
	ret <4 x float> %r4
}
define <4 x float> @_Z5cospiu2v4f(<4 x float> %p0) nounwind {
	%s1_0 = extractelement <4 x float> %p0, i32 0
	%v1 = call float @_Z5cospif(float %s1_0)
	%r1 = insertelement <4 x float> undef, float %v1, i32 0
	%s2_0 = extractelement <4 x float> %p0, i32 1
	%v2 = call float @_Z5cospif(float %s2_0)
	%r2 = insertelement <4 x float> %r1, float %v2, i32 1
	%s3_0 = extractelement <4 x float> %p0, i32 2
	%v3 = call float @_Z5cospif(float %s3_0)
	%r3 = insertelement <4 x float> %r2, float %v3, i32 2
	%s4_0 = extractelement <4 x float> %p0, i32 3
	%v4 = call float @_Z5cospif(float %s4_0)
	%r4 = insertelement <4 x float> %r3, float %v4, i32 3
	ret <4 x float> %r4
}
define <4 x float> @_Z4erfcu2v4f(<4 x float> %p0) nounwind {
	%s1_0 = extractelement <4 x float> %p0, i32 0
	%v1 = call float @_Z4erfcf(float %s1_0)
	%r1 = insertelement <4 x float> undef, float %v1, i32 0
	%s2_0 = extractelement <4 x float> %p0, i32 1
	%v2 = call float @_Z4erfcf(float %s2_0)
	%r2 = insertelement <4 x float> %r1, float %v2, i32 1
	%s3_0 = extractelement <4 x float> %p0, i32 2
	%v3 = call float @_Z4erfcf(float %s3_0)
	%r3 = insertelement <4 x float> %r2, float %v3, i32 2
	%s4_0 = extractelement <4 x float> %p0, i32 3
	%v4 = call float @_Z4erfcf(float %s4_0)
	%r4 = insertelement <4 x float> %r3, float %v4, i32 3
	ret <4 x float> %r4
}
define <4 x float> @_Z3erfu2v4f(<4 x float> %p0) nounwind {
	%s1_0 = extractelement <4 x float> %p0, i32 0
	%v1 = call float @_Z3erff(float %s1_0)
	%r1 = insertelement <4 x float> undef, float %v1, i32 0
	%s2_0 = extractelement <4 x float> %p0, i32 1
	%v2 = call float @_Z3erff(float %s2_0)
	%r2 = insertelement <4 x float> %r1, float %v2, i32 1
	%s3_0 = extractelement <4 x float> %p0, i32 2
	%v3 = call float @_Z3erff(float %s3_0)
	%r3 = insertelement <4 x float> %r2, float %v3, i32 2
	%s4_0 = extractelement <4 x float> %p0, i32 3
	%v4 = call float @_Z3erff(float %s4_0)
	%r4 = insertelement <4 x float> %r3, float %v4, i32 3
	ret <4 x float> %r4
}
define <4 x float> @_Z4exp2u2v4f(<4 x float> %p0) nounwind {
	%s1_0 = extractelement <4 x float> %p0, i32 0
	%v1 = call float @_Z4exp2f(float %s1_0)
	%r1 = insertelement <4 x float> undef, float %v1, i32 0
	%s2_0 = extractelement <4 x float> %p0, i32 1
	%v2 = call float @_Z4exp2f(float %s2_0)
	%r2 = insertelement <4 x float> %r1, float %v2, i32 1
	%s3_0 = extractelement <4 x float> %p0, i32 2
	%v3 = call float @_Z4exp2f(float %s3_0)
	%r3 = insertelement <4 x float> %r2, float %v3, i32 2
	%s4_0 = extractelement <4 x float> %p0, i32 3
	%v4 = call float @_Z4exp2f(float %s4_0)
	%r4 = insertelement <4 x float> %r3, float %v4, i32 3
	ret <4 x float> %r4
}
define <4 x float> @_Z5exp10u2v4f(<4 x float> %p0) nounwind {
	%s1_0 = extractelement <4 x float> %p0, i32 0
	%v1 = call float @_Z5exp10f(float %s1_0)
	%r1 = insertelement <4 x float> undef, float %v1, i32 0
	%s2_0 = extractelement <4 x float> %p0, i32 1
	%v2 = call float @_Z5exp10f(float %s2_0)
	%r2 = insertelement <4 x float> %r1, float %v2, i32 1
	%s3_0 = extractelement <4 x float> %p0, i32 2
	%v3 = call float @_Z5exp10f(float %s3_0)
	%r3 = insertelement <4 x float> %r2, float %v3, i32 2
	%s4_0 = extractelement <4 x float> %p0, i32 3
	%v4 = call float @_Z5exp10f(float %s4_0)
	%r4 = insertelement <4 x float> %r3, float %v4, i32 3
	ret <4 x float> %r4
}
define <4 x float> @_Z5expm1u2v4f(<4 x float> %p0) nounwind {
	%s1_0 = extractelement <4 x float> %p0, i32 0
	%v1 = call float @_Z5expm1f(float %s1_0)
	%r1 = insertelement <4 x float> undef, float %v1, i32 0
	%s2_0 = extractelement <4 x float> %p0, i32 1
	%v2 = call float @_Z5expm1f(float %s2_0)
	%r2 = insertelement <4 x float> %r1, float %v2, i32 1
	%s3_0 = extractelement <4 x float> %p0, i32 2
	%v3 = call float @_Z5expm1f(float %s3_0)
	%r3 = insertelement <4 x float> %r2, float %v3, i32 2
	%s4_0 = extractelement <4 x float> %p0, i32 3
	%v4 = call float @_Z5expm1f(float %s4_0)
	%r4 = insertelement <4 x float> %r3, float %v4, i32 3
	ret <4 x float> %r4
}
define <4 x float> @_Z4fdimu2v4fu2v4f(<4 x float> %p0, <4 x float> %p1) nounwind {
	%s1_0 = extractelement <4 x float> %p0, i32 0
	%s1_1 = extractelement <4 x float> %p1, i32 0
	%v1 = call float @_Z4fdimff(float %s1_0, float %s1_1)
	%r1 = insertelement <4 x float> undef, float %v1, i32 0
	%s2_0 = extractelement <4 x float> %p0, i32 1
	%s2_1 = extractelement <4 x float> %p1, i32 1
	%v2 = call float @_Z4fdimff(float %s2_0, float %s2_1)
	%r2 = insertelement <4 x float> %r1, float %v2, i32 1
	%s3_0 = extractelement <4 x float> %p0, i32 2
	%s3_1 = extractelement <4 x float> %p1, i32 2
	%v3 = call float @_Z4fdimff(float %s3_0, float %s3_1)
	%r3 = insertelement <4 x float> %r2, float %v3, i32 2
	%s4_0 = extractelement <4 x float> %p0, i32 3
	%s4_1 = extractelement <4 x float> %p1, i32 3
	%v4 = call float @_Z4fdimff(float %s4_0, float %s4_1)
	%r4 = insertelement <4 x float> %r3, float %v4, i32 3
	ret <4 x float> %r4
}
define <4 x float> @_Z4fmaxu2v4fu2v4f(<4 x float> %p0, <4 x float> %p1) nounwind {
	%s1_0 = extractelement <4 x float> %p0, i32 0
	%s1_1 = extractelement <4 x float> %p1, i32 0
	%v1 = call float @_Z4fmaxff(float %s1_0, float %s1_1)
	%r1 = insertelement <4 x float> undef, float %v1, i32 0
	%s2_0 = extractelement <4 x float> %p0, i32 1
	%s2_1 = extractelement <4 x float> %p1, i32 1
	%v2 = call float @_Z4fmaxff(float %s2_0, float %s2_1)
	%r2 = insertelement <4 x float> %r1, float %v2, i32 1
	%s3_0 = extractelement <4 x float> %p0, i32 2
	%s3_1 = extractelement <4 x float> %p1, i32 2
	%v3 = call float @_Z4fmaxff(float %s3_0, float %s3_1)
	%r3 = insertelement <4 x float> %r2, float %v3, i32 2
	%s4_0 = extractelement <4 x float> %p0, i32 3
	%s4_1 = extractelement <4 x float> %p1, i32 3
	%v4 = call float @_Z4fmaxff(float %s4_0, float %s4_1)
	%r4 = insertelement <4 x float> %r3, float %v4, i32 3
	ret <4 x float> %r4
}
define <4 x float> @_Z4fminu2v4fu2v4f(<4 x float> %p0, <4 x float> %p1) nounwind {
	%s1_0 = extractelement <4 x float> %p0, i32 0
	%s1_1 = extractelement <4 x float> %p1, i32 0
	%v1 = call float @_Z4fminff(float %s1_0, float %s1_1)
	%r1 = insertelement <4 x float> undef, float %v1, i32 0
	%s2_0 = extractelement <4 x float> %p0, i32 1
	%s2_1 = extractelement <4 x float> %p1, i32 1
	%v2 = call float @_Z4fminff(float %s2_0, float %s2_1)
	%r2 = insertelement <4 x float> %r1, float %v2, i32 1
	%s3_0 = extractelement <4 x float> %p0, i32 2
	%s3_1 = extractelement <4 x float> %p1, i32 2
	%v3 = call float @_Z4fminff(float %s3_0, float %s3_1)
	%r3 = insertelement <4 x float> %r2, float %v3, i32 2
	%s4_0 = extractelement <4 x float> %p0, i32 3
	%s4_1 = extractelement <4 x float> %p1, i32 3
	%v4 = call float @_Z4fminff(float %s4_0, float %s4_1)
	%r4 = insertelement <4 x float> %r3, float %v4, i32 3
	ret <4 x float> %r4
}
define <4 x float> @_Z4fmodu2v4fu2v4f(<4 x float> %p0, <4 x float> %p1) nounwind {
	%s1_0 = extractelement <4 x float> %p0, i32 0
	%s1_1 = extractelement <4 x float> %p1, i32 0
	%v1 = call float @_Z4fmodff(float %s1_0, float %s1_1)
	%r1 = insertelement <4 x float> undef, float %v1, i32 0
	%s2_0 = extractelement <4 x float> %p0, i32 1
	%s2_1 = extractelement <4 x float> %p1, i32 1
	%v2 = call float @_Z4fmodff(float %s2_0, float %s2_1)
	%r2 = insertelement <4 x float> %r1, float %v2, i32 1
	%s3_0 = extractelement <4 x float> %p0, i32 2
	%s3_1 = extractelement <4 x float> %p1, i32 2
	%v3 = call float @_Z4fmodff(float %s3_0, float %s3_1)
	%r3 = insertelement <4 x float> %r2, float %v3, i32 2
	%s4_0 = extractelement <4 x float> %p0, i32 3
	%s4_1 = extractelement <4 x float> %p1, i32 3
	%v4 = call float @_Z4fmodff(float %s4_0, float %s4_1)
	%r4 = insertelement <4 x float> %r3, float %v4, i32 3
	ret <4 x float> %r4
}
define <4 x float> @_Z5fractu2v4fPu2v4f(<4 x float> %p0, <4 x float>* %p1) nounwind {
	%s1_0 = extractelement <4 x float> %p0, i32 0
	%s1_1 = getelementptr <4 x float>* %p1, i32 0, i32 0
	%v1 = call float @_Z5fractfPf(float %s1_0, float* %s1_1)
	%r1 = insertelement <4 x float> undef, float %v1, i32 0
	%s2_0 = extractelement <4 x float> %p0, i32 1
	%s2_1 = getelementptr <4 x float>* %p1, i32 0, i32 1
	%v2 = call float @_Z5fractfPf(float %s2_0, float* %s2_1)
	%r2 = insertelement <4 x float> %r1, float %v2, i32 1
	%s3_0 = extractelement <4 x float> %p0, i32 2
	%s3_1 = getelementptr <4 x float>* %p1, i32 0, i32 2
	%v3 = call float @_Z5fractfPf(float %s3_0, float* %s3_1)
	%r3 = insertelement <4 x float> %r2, float %v3, i32 2
	%s4_0 = extractelement <4 x float> %p0, i32 3
	%s4_1 = getelementptr <4 x float>* %p1, i32 0, i32 3
	%v4 = call float @_Z5fractfPf(float %s4_0, float* %s4_1)
	%r4 = insertelement <4 x float> %r3, float %v4, i32 3
	ret <4 x float> %r4
}
define <4 x float> @_Z5frexpu2v4fPu2v4i(<4 x float> %p0, <4 x i32>* %p1) nounwind {
	%s1_0 = extractelement <4 x float> %p0, i32 0
	%s1_1 = getelementptr <4 x i32>* %p1, i32 0, i32 0
	%v1 = call float @_Z5frexpfPi(float %s1_0, i32* %s1_1)
	%r1 = insertelement <4 x float> undef, float %v1, i32 0
	%s2_0 = extractelement <4 x float> %p0, i32 1
	%s2_1 = getelementptr <4 x i32>* %p1, i32 0, i32 1
	%v2 = call float @_Z5frexpfPi(float %s2_0, i32* %s2_1)
	%r2 = insertelement <4 x float> %r1, float %v2, i32 1
	%s3_0 = extractelement <4 x float> %p0, i32 2
	%s3_1 = getelementptr <4 x i32>* %p1, i32 0, i32 2
	%v3 = call float @_Z5frexpfPi(float %s3_0, i32* %s3_1)
	%r3 = insertelement <4 x float> %r2, float %v3, i32 2
	%s4_0 = extractelement <4 x float> %p0, i32 3
	%s4_1 = getelementptr <4 x i32>* %p1, i32 0, i32 3
	%v4 = call float @_Z5frexpfPi(float %s4_0, i32* %s4_1)
	%r4 = insertelement <4 x float> %r3, float %v4, i32 3
	ret <4 x float> %r4
}
define <4 x float> @_Z5hypotu2v4fu2v4f(<4 x float> %p0, <4 x float> %p1) nounwind {
	%s1_0 = extractelement <4 x float> %p0, i32 0
	%s1_1 = extractelement <4 x float> %p1, i32 0
	%v1 = call float @_Z5hypotff(float %s1_0, float %s1_1)
	%r1 = insertelement <4 x float> undef, float %v1, i32 0
	%s2_0 = extractelement <4 x float> %p0, i32 1
	%s2_1 = extractelement <4 x float> %p1, i32 1
	%v2 = call float @_Z5hypotff(float %s2_0, float %s2_1)
	%r2 = insertelement <4 x float> %r1, float %v2, i32 1
	%s3_0 = extractelement <4 x float> %p0, i32 2
	%s3_1 = extractelement <4 x float> %p1, i32 2
	%v3 = call float @_Z5hypotff(float %s3_0, float %s3_1)
	%r3 = insertelement <4 x float> %r2, float %v3, i32 2
	%s4_0 = extractelement <4 x float> %p0, i32 3
	%s4_1 = extractelement <4 x float> %p1, i32 3
	%v4 = call float @_Z5hypotff(float %s4_0, float %s4_1)
	%r4 = insertelement <4 x float> %r3, float %v4, i32 3
	ret <4 x float> %r4
}
define <4 x float> @_Z5ldexpu2v4fu2v4i(<4 x float> %p0, <4 x i32> %p1) nounwind {
	%s1_0 = extractelement <4 x float> %p0, i32 0
	%s1_1 = extractelement <4 x i32> %p1, i32 0
	%v1 = call float @_Z5ldexpfi(float %s1_0, i32 %s1_1)
	%r1 = insertelement <4 x float> undef, float %v1, i32 0
	%s2_0 = extractelement <4 x float> %p0, i32 1
	%s2_1 = extractelement <4 x i32> %p1, i32 1
	%v2 = call float @_Z5ldexpfi(float %s2_0, i32 %s2_1)
	%r2 = insertelement <4 x float> %r1, float %v2, i32 1
	%s3_0 = extractelement <4 x float> %p0, i32 2
	%s3_1 = extractelement <4 x i32> %p1, i32 2
	%v3 = call float @_Z5ldexpfi(float %s3_0, i32 %s3_1)
	%r3 = insertelement <4 x float> %r2, float %v3, i32 2
	%s4_0 = extractelement <4 x float> %p0, i32 3
	%s4_1 = extractelement <4 x i32> %p1, i32 3
	%v4 = call float @_Z5ldexpfi(float %s4_0, i32 %s4_1)
	%r4 = insertelement <4 x float> %r3, float %v4, i32 3
	ret <4 x float> %r4
}
define <4 x float> @_Z6lgammau2v4f(<4 x float> %p0) nounwind {
	%s1_0 = extractelement <4 x float> %p0, i32 0
	%v1 = call float @_Z6lgammaf(float %s1_0)
	%r1 = insertelement <4 x float> undef, float %v1, i32 0
	%s2_0 = extractelement <4 x float> %p0, i32 1
	%v2 = call float @_Z6lgammaf(float %s2_0)
	%r2 = insertelement <4 x float> %r1, float %v2, i32 1
	%s3_0 = extractelement <4 x float> %p0, i32 2
	%v3 = call float @_Z6lgammaf(float %s3_0)
	%r3 = insertelement <4 x float> %r2, float %v3, i32 2
	%s4_0 = extractelement <4 x float> %p0, i32 3
	%v4 = call float @_Z6lgammaf(float %s4_0)
	%r4 = insertelement <4 x float> %r3, float %v4, i32 3
	ret <4 x float> %r4
}
define <4 x float> @_Z8lgamma_ru2v4fPu2v4i(<4 x float> %p0, <4 x i32>* %p1) nounwind {
	%s1_0 = extractelement <4 x float> %p0, i32 0
	%s1_1 = getelementptr <4 x i32>* %p1, i32 0, i32 0
	%v1 = call float @_Z8lgamma_rfPi(float %s1_0, i32* %s1_1)
	%r1 = insertelement <4 x float> undef, float %v1, i32 0
	%s2_0 = extractelement <4 x float> %p0, i32 1
	%s2_1 = getelementptr <4 x i32>* %p1, i32 0, i32 1
	%v2 = call float @_Z8lgamma_rfPi(float %s2_0, i32* %s2_1)
	%r2 = insertelement <4 x float> %r1, float %v2, i32 1
	%s3_0 = extractelement <4 x float> %p0, i32 2
	%s3_1 = getelementptr <4 x i32>* %p1, i32 0, i32 2
	%v3 = call float @_Z8lgamma_rfPi(float %s3_0, i32* %s3_1)
	%r3 = insertelement <4 x float> %r2, float %v3, i32 2
	%s4_0 = extractelement <4 x float> %p0, i32 3
	%s4_1 = getelementptr <4 x i32>* %p1, i32 0, i32 3
	%v4 = call float @_Z8lgamma_rfPi(float %s4_0, i32* %s4_1)
	%r4 = insertelement <4 x float> %r3, float %v4, i32 3
	ret <4 x float> %r4
}
define <4 x float> @_Z4log2u2v4f(<4 x float> %p0) nounwind {
	%s1_0 = extractelement <4 x float> %p0, i32 0
	%v1 = call float @_Z4log2f(float %s1_0)
	%r1 = insertelement <4 x float> undef, float %v1, i32 0
	%s2_0 = extractelement <4 x float> %p0, i32 1
	%v2 = call float @_Z4log2f(float %s2_0)
	%r2 = insertelement <4 x float> %r1, float %v2, i32 1
	%s3_0 = extractelement <4 x float> %p0, i32 2
	%v3 = call float @_Z4log2f(float %s3_0)
	%r3 = insertelement <4 x float> %r2, float %v3, i32 2
	%s4_0 = extractelement <4 x float> %p0, i32 3
	%v4 = call float @_Z4log2f(float %s4_0)
	%r4 = insertelement <4 x float> %r3, float %v4, i32 3
	ret <4 x float> %r4
}
define <4 x float> @_Z5log10u2v4f(<4 x float> %p0) nounwind {
	%s1_0 = extractelement <4 x float> %p0, i32 0
	%v1 = call float @_Z5log10f(float %s1_0)
	%r1 = insertelement <4 x float> undef, float %v1, i32 0
	%s2_0 = extractelement <4 x float> %p0, i32 1
	%v2 = call float @_Z5log10f(float %s2_0)
	%r2 = insertelement <4 x float> %r1, float %v2, i32 1
	%s3_0 = extractelement <4 x float> %p0, i32 2
	%v3 = call float @_Z5log10f(float %s3_0)
	%r3 = insertelement <4 x float> %r2, float %v3, i32 2
	%s4_0 = extractelement <4 x float> %p0, i32 3
	%v4 = call float @_Z5log10f(float %s4_0)
	%r4 = insertelement <4 x float> %r3, float %v4, i32 3
	ret <4 x float> %r4
}
define <4 x float> @_Z5log1pu2v4f(<4 x float> %p0) nounwind {
	%s1_0 = extractelement <4 x float> %p0, i32 0
	%v1 = call float @_Z5log1pf(float %s1_0)
	%r1 = insertelement <4 x float> undef, float %v1, i32 0
	%s2_0 = extractelement <4 x float> %p0, i32 1
	%v2 = call float @_Z5log1pf(float %s2_0)
	%r2 = insertelement <4 x float> %r1, float %v2, i32 1
	%s3_0 = extractelement <4 x float> %p0, i32 2
	%v3 = call float @_Z5log1pf(float %s3_0)
	%r3 = insertelement <4 x float> %r2, float %v3, i32 2
	%s4_0 = extractelement <4 x float> %p0, i32 3
	%v4 = call float @_Z5log1pf(float %s4_0)
	%r4 = insertelement <4 x float> %r3, float %v4, i32 3
	ret <4 x float> %r4
}
define <4 x float> @_Z4logbu2v4f(<4 x float> %p0) nounwind {
	%s1_0 = extractelement <4 x float> %p0, i32 0
	%v1 = call float @_Z4logbf(float %s1_0)
	%r1 = insertelement <4 x float> undef, float %v1, i32 0
	%s2_0 = extractelement <4 x float> %p0, i32 1
	%v2 = call float @_Z4logbf(float %s2_0)
	%r2 = insertelement <4 x float> %r1, float %v2, i32 1
	%s3_0 = extractelement <4 x float> %p0, i32 2
	%v3 = call float @_Z4logbf(float %s3_0)
	%r3 = insertelement <4 x float> %r2, float %v3, i32 2
	%s4_0 = extractelement <4 x float> %p0, i32 3
	%v4 = call float @_Z4logbf(float %s4_0)
	%r4 = insertelement <4 x float> %r3, float %v4, i32 3
	ret <4 x float> %r4
}
define <4 x float> @_Z3madu2v4fu2v4fu2v4f(<4 x float> %p0, <4 x float> %p1, <4 x float> %p2) nounwind {
	%s1_0 = extractelement <4 x float> %p0, i32 0
	%s1_1 = extractelement <4 x float> %p1, i32 0
	%s1_2 = extractelement <4 x float> %p2, i32 0
	%v1 = call float @_Z3madfff(float %s1_0, float %s1_1, float %s1_2)
	%r1 = insertelement <4 x float> undef, float %v1, i32 0
	%s2_0 = extractelement <4 x float> %p0, i32 1
	%s2_1 = extractelement <4 x float> %p1, i32 1
	%s2_2 = extractelement <4 x float> %p2, i32 1
	%v2 = call float @_Z3madfff(float %s2_0, float %s2_1, float %s2_2)
	%r2 = insertelement <4 x float> %r1, float %v2, i32 1
	%s3_0 = extractelement <4 x float> %p0, i32 2
	%s3_1 = extractelement <4 x float> %p1, i32 2
	%s3_2 = extractelement <4 x float> %p2, i32 2
	%v3 = call float @_Z3madfff(float %s3_0, float %s3_1, float %s3_2)
	%r3 = insertelement <4 x float> %r2, float %v3, i32 2
	%s4_0 = extractelement <4 x float> %p0, i32 3
	%s4_1 = extractelement <4 x float> %p1, i32 3
	%s4_2 = extractelement <4 x float> %p2, i32 3
	%v4 = call float @_Z3madfff(float %s4_0, float %s4_1, float %s4_2)
	%r4 = insertelement <4 x float> %r3, float %v4, i32 3
	ret <4 x float> %r4
}
define <4 x float> @_Z6maxmagu2v4fu2v4f(<4 x float> %p0, <4 x float> %p1) nounwind {
	%s1_0 = extractelement <4 x float> %p0, i32 0
	%s1_1 = extractelement <4 x float> %p1, i32 0
	%v1 = call float @_Z6maxmagff(float %s1_0, float %s1_1)
	%r1 = insertelement <4 x float> undef, float %v1, i32 0
	%s2_0 = extractelement <4 x float> %p0, i32 1
	%s2_1 = extractelement <4 x float> %p1, i32 1
	%v2 = call float @_Z6maxmagff(float %s2_0, float %s2_1)
	%r2 = insertelement <4 x float> %r1, float %v2, i32 1
	%s3_0 = extractelement <4 x float> %p0, i32 2
	%s3_1 = extractelement <4 x float> %p1, i32 2
	%v3 = call float @_Z6maxmagff(float %s3_0, float %s3_1)
	%r3 = insertelement <4 x float> %r2, float %v3, i32 2
	%s4_0 = extractelement <4 x float> %p0, i32 3
	%s4_1 = extractelement <4 x float> %p1, i32 3
	%v4 = call float @_Z6maxmagff(float %s4_0, float %s4_1)
	%r4 = insertelement <4 x float> %r3, float %v4, i32 3
	ret <4 x float> %r4
}
define <4 x float> @_Z6minmagu2v4fu2v4f(<4 x float> %p0, <4 x float> %p1) nounwind {
	%s1_0 = extractelement <4 x float> %p0, i32 0
	%s1_1 = extractelement <4 x float> %p1, i32 0
	%v1 = call float @_Z6minmagff(float %s1_0, float %s1_1)
	%r1 = insertelement <4 x float> undef, float %v1, i32 0
	%s2_0 = extractelement <4 x float> %p0, i32 1
	%s2_1 = extractelement <4 x float> %p1, i32 1
	%v2 = call float @_Z6minmagff(float %s2_0, float %s2_1)
	%r2 = insertelement <4 x float> %r1, float %v2, i32 1
	%s3_0 = extractelement <4 x float> %p0, i32 2
	%s3_1 = extractelement <4 x float> %p1, i32 2
	%v3 = call float @_Z6minmagff(float %s3_0, float %s3_1)
	%r3 = insertelement <4 x float> %r2, float %v3, i32 2
	%s4_0 = extractelement <4 x float> %p0, i32 3
	%s4_1 = extractelement <4 x float> %p1, i32 3
	%v4 = call float @_Z6minmagff(float %s4_0, float %s4_1)
	%r4 = insertelement <4 x float> %r3, float %v4, i32 3
	ret <4 x float> %r4
}
define <4 x float> @_Z4modfu2v4fPu2v4f(<4 x float> %p0, <4 x float>* %p1) nounwind {
	%s1_0 = extractelement <4 x float> %p0, i32 0
	%s1_1 = getelementptr <4 x float>* %p1, i32 0, i32 0
	%v1 = call float @_Z4modffPf(float %s1_0, float* %s1_1)
	%r1 = insertelement <4 x float> undef, float %v1, i32 0
	%s2_0 = extractelement <4 x float> %p0, i32 1
	%s2_1 = getelementptr <4 x float>* %p1, i32 0, i32 1
	%v2 = call float @_Z4modffPf(float %s2_0, float* %s2_1)
	%r2 = insertelement <4 x float> %r1, float %v2, i32 1
	%s3_0 = extractelement <4 x float> %p0, i32 2
	%s3_1 = getelementptr <4 x float>* %p1, i32 0, i32 2
	%v3 = call float @_Z4modffPf(float %s3_0, float* %s3_1)
	%r3 = insertelement <4 x float> %r2, float %v3, i32 2
	%s4_0 = extractelement <4 x float> %p0, i32 3
	%s4_1 = getelementptr <4 x float>* %p1, i32 0, i32 3
	%v4 = call float @_Z4modffPf(float %s4_0, float* %s4_1)
	%r4 = insertelement <4 x float> %r3, float %v4, i32 3
	ret <4 x float> %r4
}
define <4 x float> @_Z9nextafteru2v4fu2v4f(<4 x float> %p0, <4 x float> %p1) nounwind {
	%s1_0 = extractelement <4 x float> %p0, i32 0
	%s1_1 = extractelement <4 x float> %p1, i32 0
	%v1 = call float @_Z9nextafterff(float %s1_0, float %s1_1)
	%r1 = insertelement <4 x float> undef, float %v1, i32 0
	%s2_0 = extractelement <4 x float> %p0, i32 1
	%s2_1 = extractelement <4 x float> %p1, i32 1
	%v2 = call float @_Z9nextafterff(float %s2_0, float %s2_1)
	%r2 = insertelement <4 x float> %r1, float %v2, i32 1
	%s3_0 = extractelement <4 x float> %p0, i32 2
	%s3_1 = extractelement <4 x float> %p1, i32 2
	%v3 = call float @_Z9nextafterff(float %s3_0, float %s3_1)
	%r3 = insertelement <4 x float> %r2, float %v3, i32 2
	%s4_0 = extractelement <4 x float> %p0, i32 3
	%s4_1 = extractelement <4 x float> %p1, i32 3
	%v4 = call float @_Z9nextafterff(float %s4_0, float %s4_1)
	%r4 = insertelement <4 x float> %r3, float %v4, i32 3
	ret <4 x float> %r4
}
define <4 x float> @_Z4powru2v4fu2v4f(<4 x float> %p0, <4 x float> %p1) nounwind {
	%s1_0 = extractelement <4 x float> %p0, i32 0
	%s1_1 = extractelement <4 x float> %p1, i32 0
	%v1 = call float @_Z4powrff(float %s1_0, float %s1_1)
	%r1 = insertelement <4 x float> undef, float %v1, i32 0
	%s2_0 = extractelement <4 x float> %p0, i32 1
	%s2_1 = extractelement <4 x float> %p1, i32 1
	%v2 = call float @_Z4powrff(float %s2_0, float %s2_1)
	%r2 = insertelement <4 x float> %r1, float %v2, i32 1
	%s3_0 = extractelement <4 x float> %p0, i32 2
	%s3_1 = extractelement <4 x float> %p1, i32 2
	%v3 = call float @_Z4powrff(float %s3_0, float %s3_1)
	%r3 = insertelement <4 x float> %r2, float %v3, i32 2
	%s4_0 = extractelement <4 x float> %p0, i32 3
	%s4_1 = extractelement <4 x float> %p1, i32 3
	%v4 = call float @_Z4powrff(float %s4_0, float %s4_1)
	%r4 = insertelement <4 x float> %r3, float %v4, i32 3
	ret <4 x float> %r4
}
define <4 x float> @_Z9remainderu2v4fu2v4f(<4 x float> %p0, <4 x float> %p1) nounwind {
	%s1_0 = extractelement <4 x float> %p0, i32 0
	%s1_1 = extractelement <4 x float> %p1, i32 0
	%v1 = call float @_Z9remainderff(float %s1_0, float %s1_1)
	%r1 = insertelement <4 x float> undef, float %v1, i32 0
	%s2_0 = extractelement <4 x float> %p0, i32 1
	%s2_1 = extractelement <4 x float> %p1, i32 1
	%v2 = call float @_Z9remainderff(float %s2_0, float %s2_1)
	%r2 = insertelement <4 x float> %r1, float %v2, i32 1
	%s3_0 = extractelement <4 x float> %p0, i32 2
	%s3_1 = extractelement <4 x float> %p1, i32 2
	%v3 = call float @_Z9remainderff(float %s3_0, float %s3_1)
	%r3 = insertelement <4 x float> %r2, float %v3, i32 2
	%s4_0 = extractelement <4 x float> %p0, i32 3
	%s4_1 = extractelement <4 x float> %p1, i32 3
	%v4 = call float @_Z9remainderff(float %s4_0, float %s4_1)
	%r4 = insertelement <4 x float> %r3, float %v4, i32 3
	ret <4 x float> %r4
}
define <4 x float> @_Z6remquou2v4fu2v4fPu2v4i(<4 x float> %p0, <4 x float> %p1, <4 x i32>* %p2) nounwind {
	%s1_0 = extractelement <4 x float> %p0, i32 0
	%s1_1 = extractelement <4 x float> %p1, i32 0
	%s1_2 = getelementptr <4 x i32>* %p2, i32 0, i32 0
	%v1 = call float @_Z6remquoffPi(float %s1_0, float %s1_1, i32* %s1_2)
	%r1 = insertelement <4 x float> undef, float %v1, i32 0
	%s2_0 = extractelement <4 x float> %p0, i32 1
	%s2_1 = extractelement <4 x float> %p1, i32 1
	%s2_2 = getelementptr <4 x i32>* %p2, i32 0, i32 1
	%v2 = call float @_Z6remquoffPi(float %s2_0, float %s2_1, i32* %s2_2)
	%r2 = insertelement <4 x float> %r1, float %v2, i32 1
	%s3_0 = extractelement <4 x float> %p0, i32 2
	%s3_1 = extractelement <4 x float> %p1, i32 2
	%s3_2 = getelementptr <4 x i32>* %p2, i32 0, i32 2
	%v3 = call float @_Z6remquoffPi(float %s3_0, float %s3_1, i32* %s3_2)
	%r3 = insertelement <4 x float> %r2, float %v3, i32 2
	%s4_0 = extractelement <4 x float> %p0, i32 3
	%s4_1 = extractelement <4 x float> %p1, i32 3
	%s4_2 = getelementptr <4 x i32>* %p2, i32 0, i32 3
	%v4 = call float @_Z6remquoffPi(float %s4_0, float %s4_1, i32* %s4_2)
	%r4 = insertelement <4 x float> %r3, float %v4, i32 3
	ret <4 x float> %r4
}
define <4 x float> @_Z4rintu2v4f(<4 x float> %p0) nounwind {
	%s1_0 = extractelement <4 x float> %p0, i32 0
	%v1 = call float @_Z4rintf(float %s1_0)
	%r1 = insertelement <4 x float> undef, float %v1, i32 0
	%s2_0 = extractelement <4 x float> %p0, i32 1
	%v2 = call float @_Z4rintf(float %s2_0)
	%r2 = insertelement <4 x float> %r1, float %v2, i32 1
	%s3_0 = extractelement <4 x float> %p0, i32 2
	%v3 = call float @_Z4rintf(float %s3_0)
	%r3 = insertelement <4 x float> %r2, float %v3, i32 2
	%s4_0 = extractelement <4 x float> %p0, i32 3
	%v4 = call float @_Z4rintf(float %s4_0)
	%r4 = insertelement <4 x float> %r3, float %v4, i32 3
	ret <4 x float> %r4
}
define <4 x float> @_Z5rootnu2v4fu2v4i(<4 x float> %p0, <4 x i32> %p1) nounwind {
	%s1_0 = extractelement <4 x float> %p0, i32 0
	%s1_1 = extractelement <4 x i32> %p1, i32 0
	%v1 = call float @_Z5rootnfi(float %s1_0, i32 %s1_1)
	%r1 = insertelement <4 x float> undef, float %v1, i32 0
	%s2_0 = extractelement <4 x float> %p0, i32 1
	%s2_1 = extractelement <4 x i32> %p1, i32 1
	%v2 = call float @_Z5rootnfi(float %s2_0, i32 %s2_1)
	%r2 = insertelement <4 x float> %r1, float %v2, i32 1
	%s3_0 = extractelement <4 x float> %p0, i32 2
	%s3_1 = extractelement <4 x i32> %p1, i32 2
	%v3 = call float @_Z5rootnfi(float %s3_0, i32 %s3_1)
	%r3 = insertelement <4 x float> %r2, float %v3, i32 2
	%s4_0 = extractelement <4 x float> %p0, i32 3
	%s4_1 = extractelement <4 x i32> %p1, i32 3
	%v4 = call float @_Z5rootnfi(float %s4_0, i32 %s4_1)
	%r4 = insertelement <4 x float> %r3, float %v4, i32 3
	ret <4 x float> %r4
}
define <4 x float> @_Z5roundu2v4f(<4 x float> %p0) nounwind {
	%s1_0 = extractelement <4 x float> %p0, i32 0
	%v1 = call float @_Z5roundf(float %s1_0)
	%r1 = insertelement <4 x float> undef, float %v1, i32 0
	%s2_0 = extractelement <4 x float> %p0, i32 1
	%v2 = call float @_Z5roundf(float %s2_0)
	%r2 = insertelement <4 x float> %r1, float %v2, i32 1
	%s3_0 = extractelement <4 x float> %p0, i32 2
	%v3 = call float @_Z5roundf(float %s3_0)
	%r3 = insertelement <4 x float> %r2, float %v3, i32 2
	%s4_0 = extractelement <4 x float> %p0, i32 3
	%v4 = call float @_Z5roundf(float %s4_0)
	%r4 = insertelement <4 x float> %r3, float %v4, i32 3
	ret <4 x float> %r4
}
define <4 x float> @_Z5rsqrtu2v4f(<4 x float> %p0) nounwind {
	%s1_0 = extractelement <4 x float> %p0, i32 0
	%v1 = call float @_Z5rsqrtf(float %s1_0)
	%r1 = insertelement <4 x float> undef, float %v1, i32 0
	%s2_0 = extractelement <4 x float> %p0, i32 1
	%v2 = call float @_Z5rsqrtf(float %s2_0)
	%r2 = insertelement <4 x float> %r1, float %v2, i32 1
	%s3_0 = extractelement <4 x float> %p0, i32 2
	%v3 = call float @_Z5rsqrtf(float %s3_0)
	%r3 = insertelement <4 x float> %r2, float %v3, i32 2
	%s4_0 = extractelement <4 x float> %p0, i32 3
	%v4 = call float @_Z5rsqrtf(float %s4_0)
	%r4 = insertelement <4 x float> %r3, float %v4, i32 3
	ret <4 x float> %r4
}
define <4 x float> @_Z6sincosu2v4fPu2v4f(<4 x float> %p0, <4 x float>* %p1) nounwind {
	%s1_0 = extractelement <4 x float> %p0, i32 0
	%s1_1 = getelementptr <4 x float>* %p1, i32 0, i32 0
	%v1 = call float @_Z6sincosfPf(float %s1_0, float* %s1_1)
	%r1 = insertelement <4 x float> undef, float %v1, i32 0
	%s2_0 = extractelement <4 x float> %p0, i32 1
	%s2_1 = getelementptr <4 x float>* %p1, i32 0, i32 1
	%v2 = call float @_Z6sincosfPf(float %s2_0, float* %s2_1)
	%r2 = insertelement <4 x float> %r1, float %v2, i32 1
	%s3_0 = extractelement <4 x float> %p0, i32 2
	%s3_1 = getelementptr <4 x float>* %p1, i32 0, i32 2
	%v3 = call float @_Z6sincosfPf(float %s3_0, float* %s3_1)
	%r3 = insertelement <4 x float> %r2, float %v3, i32 2
	%s4_0 = extractelement <4 x float> %p0, i32 3
	%s4_1 = getelementptr <4 x float>* %p1, i32 0, i32 3
	%v4 = call float @_Z6sincosfPf(float %s4_0, float* %s4_1)
	%r4 = insertelement <4 x float> %r3, float %v4, i32 3
	ret <4 x float> %r4
}
define <4 x float> @_Z4sinhu2v4f(<4 x float> %p0) nounwind {
	%s1_0 = extractelement <4 x float> %p0, i32 0
	%v1 = call float @_Z4sinhf(float %s1_0)
	%r1 = insertelement <4 x float> undef, float %v1, i32 0
	%s2_0 = extractelement <4 x float> %p0, i32 1
	%v2 = call float @_Z4sinhf(float %s2_0)
	%r2 = insertelement <4 x float> %r1, float %v2, i32 1
	%s3_0 = extractelement <4 x float> %p0, i32 2
	%v3 = call float @_Z4sinhf(float %s3_0)
	%r3 = insertelement <4 x float> %r2, float %v3, i32 2
	%s4_0 = extractelement <4 x float> %p0, i32 3
	%v4 = call float @_Z4sinhf(float %s4_0)
	%r4 = insertelement <4 x float> %r3, float %v4, i32 3
	ret <4 x float> %r4
}
define <4 x float> @_Z5sinpiu2v4f(<4 x float> %p0) nounwind {
	%s1_0 = extractelement <4 x float> %p0, i32 0
	%v1 = call float @_Z5sinpif(float %s1_0)
	%r1 = insertelement <4 x float> undef, float %v1, i32 0
	%s2_0 = extractelement <4 x float> %p0, i32 1
	%v2 = call float @_Z5sinpif(float %s2_0)
	%r2 = insertelement <4 x float> %r1, float %v2, i32 1
	%s3_0 = extractelement <4 x float> %p0, i32 2
	%v3 = call float @_Z5sinpif(float %s3_0)
	%r3 = insertelement <4 x float> %r2, float %v3, i32 2
	%s4_0 = extractelement <4 x float> %p0, i32 3
	%v4 = call float @_Z5sinpif(float %s4_0)
	%r4 = insertelement <4 x float> %r3, float %v4, i32 3
	ret <4 x float> %r4
}
define <4 x float> @_Z3tanu2v4f(<4 x float> %p0) nounwind {
	%s1_0 = extractelement <4 x float> %p0, i32 0
	%v1 = call float @_Z3tanf(float %s1_0)
	%r1 = insertelement <4 x float> undef, float %v1, i32 0
	%s2_0 = extractelement <4 x float> %p0, i32 1
	%v2 = call float @_Z3tanf(float %s2_0)
	%r2 = insertelement <4 x float> %r1, float %v2, i32 1
	%s3_0 = extractelement <4 x float> %p0, i32 2
	%v3 = call float @_Z3tanf(float %s3_0)
	%r3 = insertelement <4 x float> %r2, float %v3, i32 2
	%s4_0 = extractelement <4 x float> %p0, i32 3
	%v4 = call float @_Z3tanf(float %s4_0)
	%r4 = insertelement <4 x float> %r3, float %v4, i32 3
	ret <4 x float> %r4
}
define <4 x float> @_Z4tanhu2v4f(<4 x float> %p0) nounwind {
	%s1_0 = extractelement <4 x float> %p0, i32 0
	%v1 = call float @_Z4tanhf(float %s1_0)
	%r1 = insertelement <4 x float> undef, float %v1, i32 0
	%s2_0 = extractelement <4 x float> %p0, i32 1
	%v2 = call float @_Z4tanhf(float %s2_0)
	%r2 = insertelement <4 x float> %r1, float %v2, i32 1
	%s3_0 = extractelement <4 x float> %p0, i32 2
	%v3 = call float @_Z4tanhf(float %s3_0)
	%r3 = insertelement <4 x float> %r2, float %v3, i32 2
	%s4_0 = extractelement <4 x float> %p0, i32 3
	%v4 = call float @_Z4tanhf(float %s4_0)
	%r4 = insertelement <4 x float> %r3, float %v4, i32 3
	ret <4 x float> %r4
}
define <4 x float> @_Z5tanpiu2v4f(<4 x float> %p0) nounwind {
	%s1_0 = extractelement <4 x float> %p0, i32 0
	%v1 = call float @_Z5tanpif(float %s1_0)
	%r1 = insertelement <4 x float> undef, float %v1, i32 0
	%s2_0 = extractelement <4 x float> %p0, i32 1
	%v2 = call float @_Z5tanpif(float %s2_0)
	%r2 = insertelement <4 x float> %r1, float %v2, i32 1
	%s3_0 = extractelement <4 x float> %p0, i32 2
	%v3 = call float @_Z5tanpif(float %s3_0)
	%r3 = insertelement <4 x float> %r2, float %v3, i32 2
	%s4_0 = extractelement <4 x float> %p0, i32 3
	%v4 = call float @_Z5tanpif(float %s4_0)
	%r4 = insertelement <4 x float> %r3, float %v4, i32 3
	ret <4 x float> %r4
}
define <4 x float> @_Z6tgammau2v4f(<4 x float> %p0) nounwind {
	%s1_0 = extractelement <4 x float> %p0, i32 0
	%v1 = call float @_Z6tgammaf(float %s1_0)
	%r1 = insertelement <4 x float> undef, float %v1, i32 0
	%s2_0 = extractelement <4 x float> %p0, i32 1
	%v2 = call float @_Z6tgammaf(float %s2_0)
	%r2 = insertelement <4 x float> %r1, float %v2, i32 1
	%s3_0 = extractelement <4 x float> %p0, i32 2
	%v3 = call float @_Z6tgammaf(float %s3_0)
	%r3 = insertelement <4 x float> %r2, float %v3, i32 2
	%s4_0 = extractelement <4 x float> %p0, i32 3
	%v4 = call float @_Z6tgammaf(float %s4_0)
	%r4 = insertelement <4 x float> %r3, float %v4, i32 3
	ret <4 x float> %r4
}
define <4 x float> @_Z5truncu2v4f(<4 x float> %p0) nounwind {
	%s1_0 = extractelement <4 x float> %p0, i32 0
	%v1 = call float @_Z5truncf(float %s1_0)
	%r1 = insertelement <4 x float> undef, float %v1, i32 0
	%s2_0 = extractelement <4 x float> %p0, i32 1
	%v2 = call float @_Z5truncf(float %s2_0)
	%r2 = insertelement <4 x float> %r1, float %v2, i32 1
	%s3_0 = extractelement <4 x float> %p0, i32 2
	%v3 = call float @_Z5truncf(float %s3_0)
	%r3 = insertelement <4 x float> %r2, float %v3, i32 2
	%s4_0 = extractelement <4 x float> %p0, i32 3
	%v4 = call float @_Z5truncf(float %s4_0)
	%r4 = insertelement <4 x float> %r3, float %v4, i32 3
	ret <4 x float> %r4
}
define <4 x float> @_Z8half_cosu2v4f(<4 x float> %p0) nounwind {
	%s1_0 = extractelement <4 x float> %p0, i32 0
	%v1 = call float @_Z8half_cosf(float %s1_0)
	%r1 = insertelement <4 x float> undef, float %v1, i32 0
	%s2_0 = extractelement <4 x float> %p0, i32 1
	%v2 = call float @_Z8half_cosf(float %s2_0)
	%r2 = insertelement <4 x float> %r1, float %v2, i32 1
	%s3_0 = extractelement <4 x float> %p0, i32 2
	%v3 = call float @_Z8half_cosf(float %s3_0)
	%r3 = insertelement <4 x float> %r2, float %v3, i32 2
	%s4_0 = extractelement <4 x float> %p0, i32 3
	%v4 = call float @_Z8half_cosf(float %s4_0)
	%r4 = insertelement <4 x float> %r3, float %v4, i32 3
	ret <4 x float> %r4
}
define <4 x float> @_Z11half_divideu2v4fu2v4f(<4 x float> %p0, <4 x float> %p1) nounwind {
	%s1_0 = extractelement <4 x float> %p0, i32 0
	%s1_1 = extractelement <4 x float> %p1, i32 0
	%v1 = call float @_Z11half_divideff(float %s1_0, float %s1_1)
	%r1 = insertelement <4 x float> undef, float %v1, i32 0
	%s2_0 = extractelement <4 x float> %p0, i32 1
	%s2_1 = extractelement <4 x float> %p1, i32 1
	%v2 = call float @_Z11half_divideff(float %s2_0, float %s2_1)
	%r2 = insertelement <4 x float> %r1, float %v2, i32 1
	%s3_0 = extractelement <4 x float> %p0, i32 2
	%s3_1 = extractelement <4 x float> %p1, i32 2
	%v3 = call float @_Z11half_divideff(float %s3_0, float %s3_1)
	%r3 = insertelement <4 x float> %r2, float %v3, i32 2
	%s4_0 = extractelement <4 x float> %p0, i32 3
	%s4_1 = extractelement <4 x float> %p1, i32 3
	%v4 = call float @_Z11half_divideff(float %s4_0, float %s4_1)
	%r4 = insertelement <4 x float> %r3, float %v4, i32 3
	ret <4 x float> %r4
}
define <4 x float> @_Z8half_expu2v4f(<4 x float> %p0) nounwind {
	%s1_0 = extractelement <4 x float> %p0, i32 0
	%v1 = call float @_Z8half_expf(float %s1_0)
	%r1 = insertelement <4 x float> undef, float %v1, i32 0
	%s2_0 = extractelement <4 x float> %p0, i32 1
	%v2 = call float @_Z8half_expf(float %s2_0)
	%r2 = insertelement <4 x float> %r1, float %v2, i32 1
	%s3_0 = extractelement <4 x float> %p0, i32 2
	%v3 = call float @_Z8half_expf(float %s3_0)
	%r3 = insertelement <4 x float> %r2, float %v3, i32 2
	%s4_0 = extractelement <4 x float> %p0, i32 3
	%v4 = call float @_Z8half_expf(float %s4_0)
	%r4 = insertelement <4 x float> %r3, float %v4, i32 3
	ret <4 x float> %r4
}
define <4 x float> @_Z9half_exp2u2v4f(<4 x float> %p0) nounwind {
	%s1_0 = extractelement <4 x float> %p0, i32 0
	%v1 = call float @_Z9half_exp2f(float %s1_0)
	%r1 = insertelement <4 x float> undef, float %v1, i32 0
	%s2_0 = extractelement <4 x float> %p0, i32 1
	%v2 = call float @_Z9half_exp2f(float %s2_0)
	%r2 = insertelement <4 x float> %r1, float %v2, i32 1
	%s3_0 = extractelement <4 x float> %p0, i32 2
	%v3 = call float @_Z9half_exp2f(float %s3_0)
	%r3 = insertelement <4 x float> %r2, float %v3, i32 2
	%s4_0 = extractelement <4 x float> %p0, i32 3
	%v4 = call float @_Z9half_exp2f(float %s4_0)
	%r4 = insertelement <4 x float> %r3, float %v4, i32 3
	ret <4 x float> %r4
}
define <4 x float> @_Z10half_exp10u2v4f(<4 x float> %p0) nounwind {
	%s1_0 = extractelement <4 x float> %p0, i32 0
	%v1 = call float @_Z10half_exp10f(float %s1_0)
	%r1 = insertelement <4 x float> undef, float %v1, i32 0
	%s2_0 = extractelement <4 x float> %p0, i32 1
	%v2 = call float @_Z10half_exp10f(float %s2_0)
	%r2 = insertelement <4 x float> %r1, float %v2, i32 1
	%s3_0 = extractelement <4 x float> %p0, i32 2
	%v3 = call float @_Z10half_exp10f(float %s3_0)
	%r3 = insertelement <4 x float> %r2, float %v3, i32 2
	%s4_0 = extractelement <4 x float> %p0, i32 3
	%v4 = call float @_Z10half_exp10f(float %s4_0)
	%r4 = insertelement <4 x float> %r3, float %v4, i32 3
	ret <4 x float> %r4
}
define <4 x float> @_Z8half_logu2v4f(<4 x float> %p0) nounwind {
	%s1_0 = extractelement <4 x float> %p0, i32 0
	%v1 = call float @_Z8half_logf(float %s1_0)
	%r1 = insertelement <4 x float> undef, float %v1, i32 0
	%s2_0 = extractelement <4 x float> %p0, i32 1
	%v2 = call float @_Z8half_logf(float %s2_0)
	%r2 = insertelement <4 x float> %r1, float %v2, i32 1
	%s3_0 = extractelement <4 x float> %p0, i32 2
	%v3 = call float @_Z8half_logf(float %s3_0)
	%r3 = insertelement <4 x float> %r2, float %v3, i32 2
	%s4_0 = extractelement <4 x float> %p0, i32 3
	%v4 = call float @_Z8half_logf(float %s4_0)
	%r4 = insertelement <4 x float> %r3, float %v4, i32 3
	ret <4 x float> %r4
}
define <4 x float> @_Z9half_log2u2v4f(<4 x float> %p0) nounwind {
	%s1_0 = extractelement <4 x float> %p0, i32 0
	%v1 = call float @_Z9half_log2f(float %s1_0)
	%r1 = insertelement <4 x float> undef, float %v1, i32 0
	%s2_0 = extractelement <4 x float> %p0, i32 1
	%v2 = call float @_Z9half_log2f(float %s2_0)
	%r2 = insertelement <4 x float> %r1, float %v2, i32 1
	%s3_0 = extractelement <4 x float> %p0, i32 2
	%v3 = call float @_Z9half_log2f(float %s3_0)
	%r3 = insertelement <4 x float> %r2, float %v3, i32 2
	%s4_0 = extractelement <4 x float> %p0, i32 3
	%v4 = call float @_Z9half_log2f(float %s4_0)
	%r4 = insertelement <4 x float> %r3, float %v4, i32 3
	ret <4 x float> %r4
}
define <4 x float> @_Z10half_log10u2v4f(<4 x float> %p0) nounwind {
	%s1_0 = extractelement <4 x float> %p0, i32 0
	%v1 = call float @_Z10half_log10f(float %s1_0)
	%r1 = insertelement <4 x float> undef, float %v1, i32 0
	%s2_0 = extractelement <4 x float> %p0, i32 1
	%v2 = call float @_Z10half_log10f(float %s2_0)
	%r2 = insertelement <4 x float> %r1, float %v2, i32 1
	%s3_0 = extractelement <4 x float> %p0, i32 2
	%v3 = call float @_Z10half_log10f(float %s3_0)
	%r3 = insertelement <4 x float> %r2, float %v3, i32 2
	%s4_0 = extractelement <4 x float> %p0, i32 3
	%v4 = call float @_Z10half_log10f(float %s4_0)
	%r4 = insertelement <4 x float> %r3, float %v4, i32 3
	ret <4 x float> %r4
}
define <4 x float> @_Z9half_powru2v4fu2v4f(<4 x float> %p0, <4 x float> %p1) nounwind {
	%s1_0 = extractelement <4 x float> %p0, i32 0
	%s1_1 = extractelement <4 x float> %p1, i32 0
	%v1 = call float @_Z9half_powrff(float %s1_0, float %s1_1)
	%r1 = insertelement <4 x float> undef, float %v1, i32 0
	%s2_0 = extractelement <4 x float> %p0, i32 1
	%s2_1 = extractelement <4 x float> %p1, i32 1
	%v2 = call float @_Z9half_powrff(float %s2_0, float %s2_1)
	%r2 = insertelement <4 x float> %r1, float %v2, i32 1
	%s3_0 = extractelement <4 x float> %p0, i32 2
	%s3_1 = extractelement <4 x float> %p1, i32 2
	%v3 = call float @_Z9half_powrff(float %s3_0, float %s3_1)
	%r3 = insertelement <4 x float> %r2, float %v3, i32 2
	%s4_0 = extractelement <4 x float> %p0, i32 3
	%s4_1 = extractelement <4 x float> %p1, i32 3
	%v4 = call float @_Z9half_powrff(float %s4_0, float %s4_1)
	%r4 = insertelement <4 x float> %r3, float %v4, i32 3
	ret <4 x float> %r4
}
define <4 x float> @_Z10half_recipu2v4f(<4 x float> %p0) nounwind {
	%s1_0 = extractelement <4 x float> %p0, i32 0
	%v1 = call float @_Z10half_recipf(float %s1_0)
	%r1 = insertelement <4 x float> undef, float %v1, i32 0
	%s2_0 = extractelement <4 x float> %p0, i32 1
	%v2 = call float @_Z10half_recipf(float %s2_0)
	%r2 = insertelement <4 x float> %r1, float %v2, i32 1
	%s3_0 = extractelement <4 x float> %p0, i32 2
	%v3 = call float @_Z10half_recipf(float %s3_0)
	%r3 = insertelement <4 x float> %r2, float %v3, i32 2
	%s4_0 = extractelement <4 x float> %p0, i32 3
	%v4 = call float @_Z10half_recipf(float %s4_0)
	%r4 = insertelement <4 x float> %r3, float %v4, i32 3
	ret <4 x float> %r4
}
define <4 x float> @_Z10half_rsqrtu2v4f(<4 x float> %p0) nounwind {
	%s1_0 = extractelement <4 x float> %p0, i32 0
	%v1 = call float @_Z10half_rsqrtf(float %s1_0)
	%r1 = insertelement <4 x float> undef, float %v1, i32 0
	%s2_0 = extractelement <4 x float> %p0, i32 1
	%v2 = call float @_Z10half_rsqrtf(float %s2_0)
	%r2 = insertelement <4 x float> %r1, float %v2, i32 1
	%s3_0 = extractelement <4 x float> %p0, i32 2
	%v3 = call float @_Z10half_rsqrtf(float %s3_0)
	%r3 = insertelement <4 x float> %r2, float %v3, i32 2
	%s4_0 = extractelement <4 x float> %p0, i32 3
	%v4 = call float @_Z10half_rsqrtf(float %s4_0)
	%r4 = insertelement <4 x float> %r3, float %v4, i32 3
	ret <4 x float> %r4
}
define <4 x float> @_Z8half_sinu2v4f(<4 x float> %p0) nounwind {
	%s1_0 = extractelement <4 x float> %p0, i32 0
	%v1 = call float @_Z8half_sinf(float %s1_0)
	%r1 = insertelement <4 x float> undef, float %v1, i32 0
	%s2_0 = extractelement <4 x float> %p0, i32 1
	%v2 = call float @_Z8half_sinf(float %s2_0)
	%r2 = insertelement <4 x float> %r1, float %v2, i32 1
	%s3_0 = extractelement <4 x float> %p0, i32 2
	%v3 = call float @_Z8half_sinf(float %s3_0)
	%r3 = insertelement <4 x float> %r2, float %v3, i32 2
	%s4_0 = extractelement <4 x float> %p0, i32 3
	%v4 = call float @_Z8half_sinf(float %s4_0)
	%r4 = insertelement <4 x float> %r3, float %v4, i32 3
	ret <4 x float> %r4
}
define <4 x float> @_Z9half_sqrtu2v4f(<4 x float> %p0) nounwind {
	%s1_0 = extractelement <4 x float> %p0, i32 0
	%v1 = call float @_Z9half_sqrtf(float %s1_0)
	%r1 = insertelement <4 x float> undef, float %v1, i32 0
	%s2_0 = extractelement <4 x float> %p0, i32 1
	%v2 = call float @_Z9half_sqrtf(float %s2_0)
	%r2 = insertelement <4 x float> %r1, float %v2, i32 1
	%s3_0 = extractelement <4 x float> %p0, i32 2
	%v3 = call float @_Z9half_sqrtf(float %s3_0)
	%r3 = insertelement <4 x float> %r2, float %v3, i32 2
	%s4_0 = extractelement <4 x float> %p0, i32 3
	%v4 = call float @_Z9half_sqrtf(float %s4_0)
	%r4 = insertelement <4 x float> %r3, float %v4, i32 3
	ret <4 x float> %r4
}
define <4 x float> @_Z8half_tanu2v4f(<4 x float> %p0) nounwind {
	%s1_0 = extractelement <4 x float> %p0, i32 0
	%v1 = call float @_Z8half_tanf(float %s1_0)
	%r1 = insertelement <4 x float> undef, float %v1, i32 0
	%s2_0 = extractelement <4 x float> %p0, i32 1
	%v2 = call float @_Z8half_tanf(float %s2_0)
	%r2 = insertelement <4 x float> %r1, float %v2, i32 1
	%s3_0 = extractelement <4 x float> %p0, i32 2
	%v3 = call float @_Z8half_tanf(float %s3_0)
	%r3 = insertelement <4 x float> %r2, float %v3, i32 2
	%s4_0 = extractelement <4 x float> %p0, i32 3
	%v4 = call float @_Z8half_tanf(float %s4_0)
	%r4 = insertelement <4 x float> %r3, float %v4, i32 3
	ret <4 x float> %r4
}
define <4 x float> @_Z11native_exp2u2v4f(<4 x float> %p0) nounwind {
	%s1_0 = extractelement <4 x float> %p0, i32 0
	%v1 = call float @_Z11native_exp2f(float %s1_0)
	%r1 = insertelement <4 x float> undef, float %v1, i32 0
	%s2_0 = extractelement <4 x float> %p0, i32 1
	%v2 = call float @_Z11native_exp2f(float %s2_0)
	%r2 = insertelement <4 x float> %r1, float %v2, i32 1
	%s3_0 = extractelement <4 x float> %p0, i32 2
	%v3 = call float @_Z11native_exp2f(float %s3_0)
	%r3 = insertelement <4 x float> %r2, float %v3, i32 2
	%s4_0 = extractelement <4 x float> %p0, i32 3
	%v4 = call float @_Z11native_exp2f(float %s4_0)
	%r4 = insertelement <4 x float> %r3, float %v4, i32 3
	ret <4 x float> %r4
}
define <4 x float> @_Z12native_exp10u2v4f(<4 x float> %p0) nounwind {
	%s1_0 = extractelement <4 x float> %p0, i32 0
	%v1 = call float @_Z12native_exp10f(float %s1_0)
	%r1 = insertelement <4 x float> undef, float %v1, i32 0
	%s2_0 = extractelement <4 x float> %p0, i32 1
	%v2 = call float @_Z12native_exp10f(float %s2_0)
	%r2 = insertelement <4 x float> %r1, float %v2, i32 1
	%s3_0 = extractelement <4 x float> %p0, i32 2
	%v3 = call float @_Z12native_exp10f(float %s3_0)
	%r3 = insertelement <4 x float> %r2, float %v3, i32 2
	%s4_0 = extractelement <4 x float> %p0, i32 3
	%v4 = call float @_Z12native_exp10f(float %s4_0)
	%r4 = insertelement <4 x float> %r3, float %v4, i32 3
	ret <4 x float> %r4
}
define <4 x float> @_Z11native_log2u2v4f(<4 x float> %p0) nounwind {
	%s1_0 = extractelement <4 x float> %p0, i32 0
	%v1 = call float @_Z11native_log2f(float %s1_0)
	%r1 = insertelement <4 x float> undef, float %v1, i32 0
	%s2_0 = extractelement <4 x float> %p0, i32 1
	%v2 = call float @_Z11native_log2f(float %s2_0)
	%r2 = insertelement <4 x float> %r1, float %v2, i32 1
	%s3_0 = extractelement <4 x float> %p0, i32 2
	%v3 = call float @_Z11native_log2f(float %s3_0)
	%r3 = insertelement <4 x float> %r2, float %v3, i32 2
	%s4_0 = extractelement <4 x float> %p0, i32 3
	%v4 = call float @_Z11native_log2f(float %s4_0)
	%r4 = insertelement <4 x float> %r3, float %v4, i32 3
	ret <4 x float> %r4
}
define <4 x float> @_Z12native_log10u2v4f(<4 x float> %p0) nounwind {
	%s1_0 = extractelement <4 x float> %p0, i32 0
	%v1 = call float @_Z12native_log10f(float %s1_0)
	%r1 = insertelement <4 x float> undef, float %v1, i32 0
	%s2_0 = extractelement <4 x float> %p0, i32 1
	%v2 = call float @_Z12native_log10f(float %s2_0)
	%r2 = insertelement <4 x float> %r1, float %v2, i32 1
	%s3_0 = extractelement <4 x float> %p0, i32 2
	%v3 = call float @_Z12native_log10f(float %s3_0)
	%r3 = insertelement <4 x float> %r2, float %v3, i32 2
	%s4_0 = extractelement <4 x float> %p0, i32 3
	%v4 = call float @_Z12native_log10f(float %s4_0)
	%r4 = insertelement <4 x float> %r3, float %v4, i32 3
	ret <4 x float> %r4
}
define <4 x float> @_Z12native_recipu2v4f(<4 x float> %p0) nounwind {
	%s1_0 = extractelement <4 x float> %p0, i32 0
	%v1 = call float @_Z12native_recipf(float %s1_0)
	%r1 = insertelement <4 x float> undef, float %v1, i32 0
	%s2_0 = extractelement <4 x float> %p0, i32 1
	%v2 = call float @_Z12native_recipf(float %s2_0)
	%r2 = insertelement <4 x float> %r1, float %v2, i32 1
	%s3_0 = extractelement <4 x float> %p0, i32 2
	%v3 = call float @_Z12native_recipf(float %s3_0)
	%r3 = insertelement <4 x float> %r2, float %v3, i32 2
	%s4_0 = extractelement <4 x float> %p0, i32 3
	%v4 = call float @_Z12native_recipf(float %s4_0)
	%r4 = insertelement <4 x float> %r3, float %v4, i32 3
	ret <4 x float> %r4
}
define <4 x float> @_Z12native_rsqrtu2v4f(<4 x float> %p0) nounwind {
	%s1_0 = extractelement <4 x float> %p0, i32 0
	%v1 = call float @_Z12native_rsqrtf(float %s1_0)
	%r1 = insertelement <4 x float> undef, float %v1, i32 0
	%s2_0 = extractelement <4 x float> %p0, i32 1
	%v2 = call float @_Z12native_rsqrtf(float %s2_0)
	%r2 = insertelement <4 x float> %r1, float %v2, i32 1
	%s3_0 = extractelement <4 x float> %p0, i32 2
	%v3 = call float @_Z12native_rsqrtf(float %s3_0)
	%r3 = insertelement <4 x float> %r2, float %v3, i32 2
	%s4_0 = extractelement <4 x float> %p0, i32 3
	%v4 = call float @_Z12native_rsqrtf(float %s4_0)
	%r4 = insertelement <4 x float> %r3, float %v4, i32 3
	ret <4 x float> %r4
}
define <4 x float> @_Z11native_sqrtu2v4f(<4 x float> %p0) nounwind {
	%s1_0 = extractelement <4 x float> %p0, i32 0
	%v1 = call float @_Z11native_sqrtf(float %s1_0)
	%r1 = insertelement <4 x float> undef, float %v1, i32 0
	%s2_0 = extractelement <4 x float> %p0, i32 1
	%v2 = call float @_Z11native_sqrtf(float %s2_0)
	%r2 = insertelement <4 x float> %r1, float %v2, i32 1
	%s3_0 = extractelement <4 x float> %p0, i32 2
	%v3 = call float @_Z11native_sqrtf(float %s3_0)
	%r3 = insertelement <4 x float> %r2, float %v3, i32 2
	%s4_0 = extractelement <4 x float> %p0, i32 3
	%v4 = call float @_Z11native_sqrtf(float %s4_0)
	%r4 = insertelement <4 x float> %r3, float %v4, i32 3
	ret <4 x float> %r4
}
define <4 x float> @_Z10native_sinu2v4f(<4 x float> %p0) nounwind {
	%s1_0 = extractelement <4 x float> %p0, i32 0
	%v1 = call float @_Z10native_sinf(float %s1_0)
	%r1 = insertelement <4 x float> undef, float %v1, i32 0
	%s2_0 = extractelement <4 x float> %p0, i32 1
	%v2 = call float @_Z10native_sinf(float %s2_0)
	%r2 = insertelement <4 x float> %r1, float %v2, i32 1
	%s3_0 = extractelement <4 x float> %p0, i32 2
	%v3 = call float @_Z10native_sinf(float %s3_0)
	%r3 = insertelement <4 x float> %r2, float %v3, i32 2
	%s4_0 = extractelement <4 x float> %p0, i32 3
	%v4 = call float @_Z10native_sinf(float %s4_0)
	%r4 = insertelement <4 x float> %r3, float %v4, i32 3
	ret <4 x float> %r4
}
define <4 x float> @_Z10native_cosu2v4f(<4 x float> %p0) nounwind {
	%s1_0 = extractelement <4 x float> %p0, i32 0
	%v1 = call float @_Z10native_cosf(float %s1_0)
	%r1 = insertelement <4 x float> undef, float %v1, i32 0
	%s2_0 = extractelement <4 x float> %p0, i32 1
	%v2 = call float @_Z10native_cosf(float %s2_0)
	%r2 = insertelement <4 x float> %r1, float %v2, i32 1
	%s3_0 = extractelement <4 x float> %p0, i32 2
	%v3 = call float @_Z10native_cosf(float %s3_0)
	%r3 = insertelement <4 x float> %r2, float %v3, i32 2
	%s4_0 = extractelement <4 x float> %p0, i32 3
	%v4 = call float @_Z10native_cosf(float %s4_0)
	%r4 = insertelement <4 x float> %r3, float %v4, i32 3
	ret <4 x float> %r4
}
define <4 x float> @_Z10native_expu2v4f(<4 x float> %p0) nounwind {
	%s1_0 = extractelement <4 x float> %p0, i32 0
	%v1 = call float @_Z10native_expf(float %s1_0)
	%r1 = insertelement <4 x float> undef, float %v1, i32 0
	%s2_0 = extractelement <4 x float> %p0, i32 1
	%v2 = call float @_Z10native_expf(float %s2_0)
	%r2 = insertelement <4 x float> %r1, float %v2, i32 1
	%s3_0 = extractelement <4 x float> %p0, i32 2
	%v3 = call float @_Z10native_expf(float %s3_0)
	%r3 = insertelement <4 x float> %r2, float %v3, i32 2
	%s4_0 = extractelement <4 x float> %p0, i32 3
	%v4 = call float @_Z10native_expf(float %s4_0)
	%r4 = insertelement <4 x float> %r3, float %v4, i32 3
	ret <4 x float> %r4
}
define <4 x float> @_Z10native_logu2v4f(<4 x float> %p0) nounwind {
	%s1_0 = extractelement <4 x float> %p0, i32 0
	%v1 = call float @_Z10native_logf(float %s1_0)
	%r1 = insertelement <4 x float> undef, float %v1, i32 0
	%s2_0 = extractelement <4 x float> %p0, i32 1
	%v2 = call float @_Z10native_logf(float %s2_0)
	%r2 = insertelement <4 x float> %r1, float %v2, i32 1
	%s3_0 = extractelement <4 x float> %p0, i32 2
	%v3 = call float @_Z10native_logf(float %s3_0)
	%r3 = insertelement <4 x float> %r2, float %v3, i32 2
	%s4_0 = extractelement <4 x float> %p0, i32 3
	%v4 = call float @_Z10native_logf(float %s4_0)
	%r4 = insertelement <4 x float> %r3, float %v4, i32 3
	ret <4 x float> %r4
}
define <4 x float> @_Z10native_tanu2v4f(<4 x float> %p0) nounwind {
	%s1_0 = extractelement <4 x float> %p0, i32 0
	%v1 = call float @_Z10native_tanf(float %s1_0)
	%r1 = insertelement <4 x float> undef, float %v1, i32 0
	%s2_0 = extractelement <4 x float> %p0, i32 1
	%v2 = call float @_Z10native_tanf(float %s2_0)
	%r2 = insertelement <4 x float> %r1, float %v2, i32 1
	%s3_0 = extractelement <4 x float> %p0, i32 2
	%v3 = call float @_Z10native_tanf(float %s3_0)
	%r3 = insertelement <4 x float> %r2, float %v3, i32 2
	%s4_0 = extractelement <4 x float> %p0, i32 3
	%v4 = call float @_Z10native_tanf(float %s4_0)
	%r4 = insertelement <4 x float> %r3, float %v4, i32 3
	ret <4 x float> %r4
}
define <4 x float> @_Z13native_divideu2v4fu2v4f(<4 x float> %p0, <4 x float> %p1) nounwind {
	%s1_0 = extractelement <4 x float> %p0, i32 0
	%s1_1 = extractelement <4 x float> %p1, i32 0
	%v1 = call float @_Z13native_divideff(float %s1_0, float %s1_1)
	%r1 = insertelement <4 x float> undef, float %v1, i32 0
	%s2_0 = extractelement <4 x float> %p0, i32 1
	%s2_1 = extractelement <4 x float> %p1, i32 1
	%v2 = call float @_Z13native_divideff(float %s2_0, float %s2_1)
	%r2 = insertelement <4 x float> %r1, float %v2, i32 1
	%s3_0 = extractelement <4 x float> %p0, i32 2
	%s3_1 = extractelement <4 x float> %p1, i32 2
	%v3 = call float @_Z13native_divideff(float %s3_0, float %s3_1)
	%r3 = insertelement <4 x float> %r2, float %v3, i32 2
	%s4_0 = extractelement <4 x float> %p0, i32 3
	%s4_1 = extractelement <4 x float> %p1, i32 3
	%v4 = call float @_Z13native_divideff(float %s4_0, float %s4_1)
	%r4 = insertelement <4 x float> %r3, float %v4, i32 3
	ret <4 x float> %r4
}
define <4 x float> @_Z11native_powru2v4fu2v4f(<4 x float> %p0, <4 x float> %p1) nounwind {
	%s1_0 = extractelement <4 x float> %p0, i32 0
	%s1_1 = extractelement <4 x float> %p1, i32 0
	%v1 = call float @_Z11native_powrff(float %s1_0, float %s1_1)
	%r1 = insertelement <4 x float> undef, float %v1, i32 0
	%s2_0 = extractelement <4 x float> %p0, i32 1
	%s2_1 = extractelement <4 x float> %p1, i32 1
	%v2 = call float @_Z11native_powrff(float %s2_0, float %s2_1)
	%r2 = insertelement <4 x float> %r1, float %v2, i32 1
	%s3_0 = extractelement <4 x float> %p0, i32 2
	%s3_1 = extractelement <4 x float> %p1, i32 2
	%v3 = call float @_Z11native_powrff(float %s3_0, float %s3_1)
	%r3 = insertelement <4 x float> %r2, float %v3, i32 2
	%s4_0 = extractelement <4 x float> %p0, i32 3
	%s4_1 = extractelement <4 x float> %p1, i32 3
	%v4 = call float @_Z11native_powrff(float %s4_0, float %s4_1)
	%r4 = insertelement <4 x float> %r3, float %v4, i32 3
	ret <4 x float> %r4
}
define <4 x float> @_Z12native_ldexpu2v4fu2v4i(<4 x float> %p0, <4 x i32> %p1) nounwind {
	%s1_0 = extractelement <4 x float> %p0, i32 0
	%s1_1 = extractelement <4 x i32> %p1, i32 0
	%v1 = call float @_Z12native_ldexpfi(float %s1_0, i32 %s1_1)
	%r1 = insertelement <4 x float> undef, float %v1, i32 0
	%s2_0 = extractelement <4 x float> %p0, i32 1
	%s2_1 = extractelement <4 x i32> %p1, i32 1
	%v2 = call float @_Z12native_ldexpfi(float %s2_0, i32 %s2_1)
	%r2 = insertelement <4 x float> %r1, float %v2, i32 1
	%s3_0 = extractelement <4 x float> %p0, i32 2
	%s3_1 = extractelement <4 x i32> %p1, i32 2
	%v3 = call float @_Z12native_ldexpfi(float %s3_0, i32 %s3_1)
	%r3 = insertelement <4 x float> %r2, float %v3, i32 2
	%s4_0 = extractelement <4 x float> %p0, i32 3
	%s4_1 = extractelement <4 x i32> %p1, i32 3
	%v4 = call float @_Z12native_ldexpfi(float %s4_0, i32 %s4_1)
	%r4 = insertelement <4 x float> %r3, float %v4, i32 3
	ret <4 x float> %r4
}
define <4 x double> @_Z4acosu2v4d(<4 x double> %p0) nounwind {
	%s1_0 = extractelement <4 x double> %p0, i32 0
	%v1 = call double @_Z4acosd(double %s1_0)
	%r1 = insertelement <4 x double> undef, double %v1, i32 0
	%s2_0 = extractelement <4 x double> %p0, i32 1
	%v2 = call double @_Z4acosd(double %s2_0)
	%r2 = insertelement <4 x double> %r1, double %v2, i32 1
	%s3_0 = extractelement <4 x double> %p0, i32 2
	%v3 = call double @_Z4acosd(double %s3_0)
	%r3 = insertelement <4 x double> %r2, double %v3, i32 2
	%s4_0 = extractelement <4 x double> %p0, i32 3
	%v4 = call double @_Z4acosd(double %s4_0)
	%r4 = insertelement <4 x double> %r3, double %v4, i32 3
	ret <4 x double> %r4
}
define <4 x double> @_Z5acoshu2v4d(<4 x double> %p0) nounwind {
	%s1_0 = extractelement <4 x double> %p0, i32 0
